---
triple:          'arm64-apple-darwin'
binary-path:     '/Users/a21196/Desktop/hex_for_up/main'
relocations:
  - { offset: 0x999B, size: 0x8, addend: 0x0, symName: __ZStL8__ioinit, symObjAddr: 0x6D68F, symBinAddr: 0x1000149D0, symSize: 0x0 }
  - { offset: 0x9A63, size: 0x8, addend: 0x0, symName: _win, symObjAddr: 0x6D690, symBinAddr: 0x1000149D4, symSize: 0x0 }
  - { offset: 0x9A79, size: 0x8, addend: 0x0, symName: _check_count_of_node, symObjAddr: 0x6D694, symBinAddr: 0x1000149D8, symSize: 0x0 }
  - { offset: 0x9A8F, size: 0x8, addend: 0x0, symName: __ZL11num_of_near, symObjAddr: 0x7AE8, symBinAddr: 0x100008EB0, symSize: 0x0 }
  - { offset: 0x9AA5, size: 0x8, addend: 0x0, symName: __ZL4SIZE, symObjAddr: 0x7AEC, symBinAddr: 0x100008EB4, symSize: 0x0 }
  - { offset: 0x9ABB, size: 0x8, addend: 0x0, symName: __ZL11TOTAL_CELLS, symObjAddr: 0x7AF0, symBinAddr: 0x100008EB8, symSize: 0x0 }
  - { offset: 0x9AD1, size: 0x8, addend: 0x0, symName: __ZL12VIRTUAL_LEFT, symObjAddr: 0x7AF4, symBinAddr: 0x100008EBC, symSize: 0x0 }
  - { offset: 0x9AE7, size: 0x8, addend: 0x0, symName: __ZL13VIRTUAL_RIGHT, symObjAddr: 0x7AF8, symBinAddr: 0x100008EC0, symSize: 0x0 }
  - { offset: 0x9AFD, size: 0x8, addend: 0x0, symName: __ZL11VIRTUAL_TOP, symObjAddr: 0x7AFC, symBinAddr: 0x100008EC4, symSize: 0x0 }
  - { offset: 0x9B13, size: 0x8, addend: 0x0, symName: __ZL14VIRTUAL_BOTTOM, symObjAddr: 0x7B00, symBinAddr: 0x100008EC8, symSize: 0x0 }
  - { offset: 0xA8A6, size: 0x8, addend: 0x0, symName: __GLOBAL__sub_I_main.cpp, symObjAddr: 0x8B5C, symBinAddr: 0x10000830C, symSize: 0x14 }
  - { offset: 0xA8BD, size: 0x8, addend: 0x0, symName: __Z41__static_initialization_and_destruction_0v, symObjAddr: 0x8B20, symBinAddr: 0x1000082D0, symSize: 0x3C }
  - { offset: 0xA8D4, size: 0x8, addend: 0x0, symName: __ZSt9__advanceIPZN11start_first11getBestMoveEiE10ScoredMovelEvRT_T0_St26random_access_iterator_tag, symObjAddr: 0x7AA4, symBinAddr: 0x10000828C, symSize: 0x44 }
  - { offset: 0xAA0C, size: 0x8, addend: 0x0, symName: __ZN9__gnu_cxx5__ops14_Iter_comp_valIZN11start_first11getBestMoveEiEUlRKZNS2_11getBestMoveEiE10ScoredMoveS5_E_EclINS_17__normal_iteratorIPS3_St6vectorIS3_SaIS3_EEEES3_EEbT_RT0_, symObjAddr: 0x7A78, symBinAddr: 0x100008260, symSize: 0x2C }
  - { offset: 0xAAC3, size: 0x8, addend: 0x0, symName: __ZSt23__copy_move_backward_a2ILb1EPZN11start_first11getBestMoveEiE10ScoredMoveS2_ET1_T0_S4_S3_, symObjAddr: 0x7960, symBinAddr: 0x100008148, symSize: 0x118 }
  - { offset: 0xAC7C, size: 0x8, addend: 0x0, symName: __ZSt11__push_heapIN9__gnu_cxx17__normal_iteratorIPZN11start_first11getBestMoveEiE10ScoredMoveSt6vectorIS3_SaIS3_EEEElS3_NS0_5__ops14_Iter_comp_valIZNS2_11getBestMoveEiEUlRKS3_SC_E_EEEvT_T0_SG_T1_RT2_, symObjAddr: 0x7774, symBinAddr: 0x100007F5C, symSize: 0x1EC }
  - { offset: 0xAF25, size: 0x8, addend: 0x0, symName: __ZN9__gnu_cxx5__ops14_Iter_comp_valIZN11start_first11getBestMoveEiEUlRKZNS2_11getBestMoveEiE10ScoredMoveS5_E_EC1EONS0_15_Iter_comp_iterIS6_EE, symObjAddr: 0x7754, symBinAddr: 0x100007F3C, symSize: 0x20 }
  - { offset: 0xAFFC, size: 0x8, addend: 0x0, symName: __ZSt12__niter_wrapIN9__gnu_cxx17__normal_iteratorIPZN11start_first11getBestMoveEiE10ScoredMoveSt6vectorIS3_SaIS3_EEEES4_ET_S9_T0_, symObjAddr: 0x76DC, symBinAddr: 0x100007EC4, symSize: 0x78 }
  - { offset: 0xB172, size: 0x8, addend: 0x0, symName: __ZSt4swapIZN11start_first11getBestMoveEiE10ScoredMoveENSt9enable_ifIXsrSt6__and_IJSt6__not_ISt15__is_tuple_likeIT_EESt21is_move_constructibleIS6_ESt18is_move_assignableIS6_EEE5valueEvE4typeERS6_SG_, symObjAddr: 0x766C, symBinAddr: 0x100007E54, symSize: 0x70 }
  - { offset: 0xB226, size: 0x8, addend: 0x0, symName: __ZSt13__adjust_heapIN9__gnu_cxx17__normal_iteratorIPZN11start_first11getBestMoveEiE10ScoredMoveSt6vectorIS3_SaIS3_EEEElS3_NS0_5__ops15_Iter_comp_iterIZNS2_11getBestMoveEiEUlRKS3_SC_E_EEEvT_T0_SG_T1_T2_, symObjAddr: 0x7378, symBinAddr: 0x100007B60, symSize: 0x2F4 }
  - { offset: 0xB646, size: 0x8, addend: 0x0, symName: __ZSt14__copy_move_a2ILb1EP4MoveS1_S1_ET2_T0_T1_S2_, symObjAddr: 0x723C, symBinAddr: 0x100007A24, symSize: 0x13C }
  - { offset: 0xB813, size: 0x8, addend: 0x0, symName: __ZN9__gnu_cxx5__ops14_Val_comp_iterIZN11start_first11getBestMoveEiEUlRKZNS2_11getBestMoveEiE10ScoredMoveS5_E_EclIS3_NS_17__normal_iteratorIPS3_St6vectorIS3_SaIS3_EEEEEEbRT_T0_, symObjAddr: 0x720C, symBinAddr: 0x1000079F4, symSize: 0x30 }
  - { offset: 0xB8B3, size: 0x8, addend: 0x0, symName: __ZN9__gnu_cxx5__ops14_Val_comp_iterIZN11start_first11getBestMoveEiEUlRKZNS2_11getBestMoveEiE10ScoredMoveS5_E_EC1EONS0_15_Iter_comp_iterIS6_EE, symObjAddr: 0x71EC, symBinAddr: 0x1000079D4, symSize: 0x20 }
  - { offset: 0xB94F, size: 0x8, addend: 0x0, symName: __ZSt12__miter_baseIN9__gnu_cxx17__normal_iteratorIPZN11start_first11getBestMoveEiE10ScoredMoveSt6vectorIS3_SaIS3_EEEEET_S9_, symObjAddr: 0x71D8, symBinAddr: 0x1000079C0, symSize: 0x14 }
  - { offset: 0xB981, size: 0x8, addend: 0x0, symName: __ZSt9iter_swapIN9__gnu_cxx17__normal_iteratorIPZN11start_first11getBestMoveEiE10ScoredMoveSt6vectorIS3_SaIS3_EEEES8_EvT_T0_, symObjAddr: 0x71B0, symBinAddr: 0x100007998, symSize: 0x28 }
  - { offset: 0xBA1F, size: 0x8, addend: 0x0, symName: __ZSt10__pop_heapIN9__gnu_cxx17__normal_iteratorIPZN11start_first11getBestMoveEiE10ScoredMoveSt6vectorIS3_SaIS3_EEEENS0_5__ops15_Iter_comp_iterIZNS2_11getBestMoveEiEUlRKS3_SC_E_EEEvT_SF_SF_RT0_, symObjAddr: 0x70E8, symBinAddr: 0x1000078D0, symSize: 0xC8 }
  - { offset: 0xBC26, size: 0x8, addend: 0x0, symName: __ZSt11__make_heapIN9__gnu_cxx17__normal_iteratorIPZN11start_first11getBestMoveEiE10ScoredMoveSt6vectorIS3_SaIS3_EEEENS0_5__ops15_Iter_comp_iterIZNS2_11getBestMoveEiEUlRKS3_SC_E_EEEvT_SF_RT0_, symObjAddr: 0x6F80, symBinAddr: 0x100007768, symSize: 0x168 }
  - { offset: 0xBEAE, size: 0x8, addend: 0x0, symName: __ZSt14__relocate_a_1IZN11start_first11getBestMoveEiE10ScoredMoveS1_ENSt9enable_ifIXsrSt24__is_bitwise_relocatableIT_vE5valueEPS4_E4typeES6_S6_S6_RSaIT0_E, symObjAddr: 0x6EF0, symBinAddr: 0x1000076D8, symSize: 0x90 }
  - { offset: 0xBF4E, size: 0x8, addend: 0x0, symName: __ZNSt15__new_allocatorIZN11start_first11getBestMoveEiE10ScoredMoveE8allocateEmPKv, symObjAddr: 0x6E60, symBinAddr: 0x100007648, symSize: 0x90 }
  - { offset: 0xBFC0, size: 0x8, addend: 0x0, symName: __ZNKSt12_Vector_baseIZN11start_first11getBestMoveEiE10ScoredMoveSaIS1_EE19_M_get_Tp_allocatorEv, symObjAddr: 0x6E4C, symBinAddr: 0x100007634, symSize: 0x14 }
  - { offset: 0xBFE5, size: 0x8, addend: 0x0, symName: __ZNSt6vectorIZN11start_first11getBestMoveEiE10ScoredMoveSaIS1_EE11_S_max_sizeERKS2_, symObjAddr: 0x6DF0, symBinAddr: 0x1000075D8, symSize: 0x5C }
  - { offset: 0xC09B, size: 0x8, addend: 0x0, symName: __ZSt14__relocate_a_1I4MoveS0_ENSt9enable_ifIXsrSt24__is_bitwise_relocatableIT_vE5valueEPS3_E4typeES5_S5_S5_RSaIT0_E, symObjAddr: 0x6D8C, symBinAddr: 0x100007574, symSize: 0x64 }
  - { offset: 0xC13B, size: 0x8, addend: 0x0, symName: __ZNSt15__new_allocatorI4MoveE8allocateEmPKv, symObjAddr: 0x6D10, symBinAddr: 0x1000074F8, symSize: 0x7C }
  - { offset: 0xC1A9, size: 0x8, addend: 0x0, symName: __ZNSt6vectorI4MoveSaIS0_EE11_S_max_sizeERKS1_, symObjAddr: 0x6CBC, symBinAddr: 0x1000074A4, symSize: 0x54 }
  - { offset: 0xC25F, size: 0x8, addend: 0x0, symName: __ZSt14__relocate_a_1IPN4MCTS4NodeES2_ENSt9enable_ifIXsrSt24__is_bitwise_relocatableIT_vE5valueEPS5_E4typeES7_S7_S7_RSaIT0_E, symObjAddr: 0x6C58, symBinAddr: 0x100007440, symSize: 0x64 }
  - { offset: 0xC2FF, size: 0x8, addend: 0x0, symName: __ZNSt15__new_allocatorIPN4MCTS4NodeEE8allocateEmPKv, symObjAddr: 0x6BDC, symBinAddr: 0x1000073C4, symSize: 0x7C }
  - { offset: 0xC371, size: 0x8, addend: 0x0, symName: __ZNKSt12_Vector_baseIPN4MCTS4NodeESaIS2_EE19_M_get_Tp_allocatorEv, symObjAddr: 0x6BC8, symBinAddr: 0x1000073B0, symSize: 0x14 }
  - { offset: 0xC396, size: 0x8, addend: 0x0, symName: __ZNSt6vectorIPN4MCTS4NodeESaIS2_EE11_S_max_sizeERKS3_, symObjAddr: 0x6B74, symBinAddr: 0x10000735C, symSize: 0x54 }
  - { offset: 0xC477, size: 0x8, addend: 0x0, symName: __ZNSt12_Vector_baseI4MoveSaIS0_EE12_Vector_implC1ERKS1_, symObjAddr: 0x6B28, symBinAddr: 0x100007310, symSize: 0x4C }
  - { offset: 0xC4F9, size: 0x8, addend: 0x0, symName: __ZSt12__niter_wrapIN9__gnu_cxx17__normal_iteratorIP4MoveSt6vectorIS2_SaIS2_EEEES3_ET_S8_T0_, symObjAddr: 0x6AC8, symBinAddr: 0x1000072B0, symSize: 0x60 }
  - { offset: 0xC66F, size: 0x8, addend: 0x0, symName: __ZSt25__unguarded_linear_insertIN9__gnu_cxx17__normal_iteratorIPZN11start_first11getBestMoveEiE10ScoredMoveSt6vectorIS3_SaIS3_EEEENS0_5__ops14_Val_comp_iterIZNS2_11getBestMoveEiEUlRKS3_SC_E_EEEvT_T0_, symObjAddr: 0x6A08, symBinAddr: 0x1000071F0, symSize: 0xC0 }
  - { offset: 0xC80C, size: 0x8, addend: 0x0, symName: __ZN9__gnu_cxx5__ops15__val_comp_iterIZN11start_first11getBestMoveEiEUlRKZNS2_11getBestMoveEiE10ScoredMoveS5_E_EENS0_14_Val_comp_iterIT_EENS0_15_Iter_comp_iterIS8_EE, symObjAddr: 0x69D8, symBinAddr: 0x1000071C0, symSize: 0x30 }
  - { offset: 0xC8A0, size: 0x8, addend: 0x0, symName: __ZN9__gnu_cxx5__ops15_Iter_comp_iterIZN11start_first11getBestMoveEiEUlRKZNS2_11getBestMoveEiE10ScoredMoveS5_E_EclINS_17__normal_iteratorIPS3_St6vectorIS3_SaIS3_EEEESE_EEbT_T0_, symObjAddr: 0x69AC, symBinAddr: 0x100007194, symSize: 0x2C }
  - { offset: 0xC94B, size: 0x8, addend: 0x0, symName: __ZSt21__unguarded_partitionIN9__gnu_cxx17__normal_iteratorIPZN11start_first11getBestMoveEiE10ScoredMoveSt6vectorIS3_SaIS3_EEEENS0_5__ops15_Iter_comp_iterIZNS2_11getBestMoveEiEUlRKS3_SC_E_EEET_SF_SF_SF_T0_, symObjAddr: 0x68B8, symBinAddr: 0x1000070A0, symSize: 0xF4 }
  - { offset: 0xCAAC, size: 0x8, addend: 0x0, symName: __ZSt22__move_median_to_firstIN9__gnu_cxx17__normal_iteratorIPZN11start_first11getBestMoveEiE10ScoredMoveSt6vectorIS3_SaIS3_EEEENS0_5__ops15_Iter_comp_iterIZNS2_11getBestMoveEiEUlRKS3_SC_E_EEEvT_SF_SF_SF_T0_, symObjAddr: 0x67A8, symBinAddr: 0x100006F90, symSize: 0x110 }
  - { offset: 0xCB21, size: 0x8, addend: 0x0, symName: __ZSt11__sort_heapIN9__gnu_cxx17__normal_iteratorIPZN11start_first11getBestMoveEiE10ScoredMoveSt6vectorIS3_SaIS3_EEEENS0_5__ops15_Iter_comp_iterIZNS2_11getBestMoveEiEUlRKS3_SC_E_EEEvT_SF_RT0_, symObjAddr: 0x6710, symBinAddr: 0x100006EF8, symSize: 0x98 }
  - { offset: 0xCC0E, size: 0x8, addend: 0x0, symName: __ZSt13__heap_selectIN9__gnu_cxx17__normal_iteratorIPZN11start_first11getBestMoveEiE10ScoredMoveSt6vectorIS3_SaIS3_EEEENS0_5__ops15_Iter_comp_iterIZNS2_11getBestMoveEiEUlRKS3_SC_E_EEEvT_SF_SF_T0_, symObjAddr: 0x664C, symBinAddr: 0x100006E34, symSize: 0xC4 }
  - { offset: 0xCD30, size: 0x8, addend: 0x0, symName: __ZSt13__countl_zeroImEiT_, symObjAddr: 0x662C, symBinAddr: 0x100006E14, symSize: 0x20 }
  - { offset: 0xCDAD, size: 0x8, addend: 0x0, symName: __ZNKSt6vectorIZN11start_first11getBestMoveEiE10ScoredMoveSaIS1_EE3endEv, symObjAddr: 0x65FC, symBinAddr: 0x100006DE4, symSize: 0x30 }
  - { offset: 0xCE00, size: 0x8, addend: 0x0, symName: __ZNKSt6vectorIZN11start_first11getBestMoveEiE10ScoredMoveSaIS1_EE5beginEv, symObjAddr: 0x65D0, symBinAddr: 0x100006DB8, symSize: 0x2C }
  - { offset: 0xCE4F, size: 0x8, addend: 0x0, symName: __ZSt12__relocate_aIPZN11start_first11getBestMoveEiE10ScoredMoveS2_SaIS1_EET0_T_S5_S4_RT1_, symObjAddr: 0x6584, symBinAddr: 0x100006D6C, symSize: 0x4C }
  - { offset: 0xCF57, size: 0x8, addend: 0x0, symName: __ZNKSt6vectorIZN11start_first11getBestMoveEiE10ScoredMoveSaIS1_EE8max_sizeEv, symObjAddr: 0x6564, symBinAddr: 0x100006D4C, symSize: 0x20 }
  - { offset: 0xCF7C, size: 0x8, addend: 0x0, symName: __ZSt12__relocate_aIP4MoveS1_SaIS0_EET0_T_S4_S3_RT1_, symObjAddr: 0x6518, symBinAddr: 0x100006D00, symSize: 0x4C }
  - { offset: 0xD084, size: 0x8, addend: 0x0, symName: __ZNKSt6vectorI4MoveSaIS0_EE8max_sizeEv, symObjAddr: 0x64F8, symBinAddr: 0x100006CE0, symSize: 0x20 }
  - { offset: 0xD0B2, size: 0x8, addend: 0x0, symName: __ZNSt23mersenne_twister_engineIjLm32ELm624ELm397ELm31ELj2567483615ELm11ELj4294967295ELm7ELj2636928640ELm15ELj4022730752ELm18ELj1812433253EE11_M_gen_randEv, symObjAddr: 0x6338, symBinAddr: 0x100006B20, symSize: 0x1C0 }
  - { offset: 0xD1EB, size: 0x8, addend: 0x0, symName: __ZNSt4pairImmEC1ImmLb1EEEOT_OT0_, symObjAddr: 0x62EC, symBinAddr: 0x100006AD4, symSize: 0x4C }
  - { offset: 0xD278, size: 0x8, addend: 0x0, symName: __ZNSt8__detail4_ModIjLj624ELj1ELj0ELb1ELb1EE6__calcEj, symObjAddr: 0x62B4, symBinAddr: 0x100006A9C, symSize: 0x38 }
  - { offset: 0xD2AE, size: 0x8, addend: 0x0, symName: __ZNSt8__detail4_ModIjLj0ELj1ELj0ELb1ELb0EE6__calcEj, symObjAddr: 0x6298, symBinAddr: 0x100006A80, symSize: 0x1C }
  - { offset: 0xD2E4, size: 0x8, addend: 0x0, symName: __ZSt12__relocate_aIPPN4MCTS4NodeES3_SaIS2_EET0_T_S6_S5_RT1_, symObjAddr: 0x624C, symBinAddr: 0x100006A34, symSize: 0x4C }
  - { offset: 0xD3EC, size: 0x8, addend: 0x0, symName: __ZNKSt6vectorIPN4MCTS4NodeESaIS2_EE4sizeEv, symObjAddr: 0x620C, symBinAddr: 0x1000069F4, symSize: 0x40 }
  - { offset: 0xD426, size: 0x8, addend: 0x0, symName: __ZNKSt6vectorIPN4MCTS4NodeESaIS2_EE8max_sizeEv, symObjAddr: 0x61EC, symBinAddr: 0x1000069D4, symSize: 0x20 }
  - { offset: 0xD44F, size: 0x8, addend: 0x0, symName: __ZNSt12_Vector_baseI4MoveSaIS0_EE17_Vector_impl_data12_M_copy_dataERKS3_, symObjAddr: 0x61A4, symBinAddr: 0x10000698C, symSize: 0x48 }
  - { offset: 0xD4AF, size: 0x8, addend: 0x0, symName: __ZNSt12_Vector_baseI4MoveSaIS0_EEC2ERKS1_, symObjAddr: 0x617C, symBinAddr: 0x100006964, symSize: 0x28 }
  - { offset: 0xD4DD, size: 0x8, addend: 0x0, symName: __ZNKSt12_Vector_baseI4MoveSaIS0_EE19_M_get_Tp_allocatorEv, symObjAddr: 0x6168, symBinAddr: 0x100006950, symSize: 0x14 }
  - { offset: 0xD577, size: 0x8, addend: 0x0, symName: __ZSt12__miter_baseIN9__gnu_cxx17__normal_iteratorIP4MoveSt6vectorIS2_SaIS2_EEEEET_S8_, symObjAddr: 0x6154, symBinAddr: 0x10000693C, symSize: 0x14 }
  - { offset: 0xD5AD, size: 0x8, addend: 0x0, symName: __ZNSt15__new_allocatorIPN4MCTS4NodeEE10deallocateEPS2_m, symObjAddr: 0x6124, symBinAddr: 0x10000690C, symSize: 0x30 }
  - { offset: 0xD5F0, size: 0x8, addend: 0x0, symName: __ZSt26__unguarded_insertion_sortIN9__gnu_cxx17__normal_iteratorIPZN11start_first11getBestMoveEiE10ScoredMoveSt6vectorIS3_SaIS3_EEEENS0_5__ops15_Iter_comp_iterIZNS2_11getBestMoveEiEUlRKS3_SC_E_EEEvT_SF_T0_, symObjAddr: 0x6090, symBinAddr: 0x100006878, symSize: 0x94 }
  - { offset: 0xD701, size: 0x8, addend: 0x0, symName: __ZSt16__insertion_sortIN9__gnu_cxx17__normal_iteratorIPZN11start_first11getBestMoveEiE10ScoredMoveSt6vectorIS3_SaIS3_EEEENS0_5__ops15_Iter_comp_iterIZNS2_11getBestMoveEiEUlRKS3_SC_E_EEEvT_SF_T0_, symObjAddr: 0x5E60, symBinAddr: 0x100006648, symSize: 0x230 }
  - { offset: 0xDBA5, size: 0x8, addend: 0x0, symName: __ZSt27__unguarded_partition_pivotIN9__gnu_cxx17__normal_iteratorIPZN11start_first11getBestMoveEiE10ScoredMoveSt6vectorIS3_SaIS3_EEEENS0_5__ops15_Iter_comp_iterIZNS2_11getBestMoveEiEUlRKS3_SC_E_EEET_SF_SF_T0_, symObjAddr: 0x5CF4, symBinAddr: 0x1000064DC, symSize: 0x16C }
  - { offset: 0xDDCA, size: 0x8, addend: 0x0, symName: __ZSt14__partial_sortIN9__gnu_cxx17__normal_iteratorIPZN11start_first11getBestMoveEiE10ScoredMoveSt6vectorIS3_SaIS3_EEEENS0_5__ops15_Iter_comp_iterIZNS2_11getBestMoveEiEUlRKS3_SC_E_EEEvT_SF_SF_T0_, symObjAddr: 0x5CA8, symBinAddr: 0x100006490, symSize: 0x4C }
  - { offset: 0xDE38, size: 0x8, addend: 0x0, symName: __ZSt11__bit_widthImEiT_, symObjAddr: 0x5C78, symBinAddr: 0x100006460, symSize: 0x30 }
  - { offset: 0xDEB8, size: 0x8, addend: 0x0, symName: __ZNKSt6vectorIZN11start_first11getBestMoveEiE10ScoredMoveSaIS1_EE5emptyEv, symObjAddr: 0x5C20, symBinAddr: 0x100006408, symSize: 0x58 }
  - { offset: 0xDF4C, size: 0x8, addend: 0x0, symName: __ZNSt6vectorIZN11start_first11getBestMoveEiE10ScoredMoveSaIS1_EE11_S_relocateEPS1_S4_S4_RS2_, symObjAddr: 0x5BEC, symBinAddr: 0x1000063D4, symSize: 0x34 }
  - { offset: 0xDFE3, size: 0x8, addend: 0x0, symName: __ZNSt6vectorIZN11start_first11getBestMoveEiE10ScoredMoveSaIS1_EE12_Guard_allocD1Ev, symObjAddr: 0x5BA0, symBinAddr: 0x100006388, symSize: 0x4C }
  - { offset: 0xE04A, size: 0x8, addend: 0x0, symName: __ZNSt6vectorIZN11start_first11getBestMoveEiE10ScoredMoveSaIS1_EE12_Guard_allocC1EPS1_mRSt12_Vector_baseIS1_S2_E, symObjAddr: 0x5B5C, symBinAddr: 0x100006344, symSize: 0x44 }
  - { offset: 0xE08A, size: 0x8, addend: 0x0, symName: __ZNSt12_Vector_baseIZN11start_first11getBestMoveEiE10ScoredMoveSaIS1_EE11_M_allocateEm, symObjAddr: 0x5B0C, symBinAddr: 0x1000062F4, symSize: 0x50 }
  - { offset: 0xE0F1, size: 0x8, addend: 0x0, symName: __ZNKSt6vectorIZN11start_first11getBestMoveEiE10ScoredMoveSaIS1_EE12_M_check_lenEmPKc, symObjAddr: 0x5A3C, symBinAddr: 0x100006224, symSize: 0xD0 }
  - { offset: 0xE198, size: 0x8, addend: 0x0, symName: __ZNSt15__new_allocatorIZN11start_first11getBestMoveEiE10ScoredMoveE10deallocateEPS1_m, symObjAddr: 0x5A00, symBinAddr: 0x1000061E8, symSize: 0x3C }
  - { offset: 0xE1FE, size: 0x8, addend: 0x0, symName: __ZNSt6vectorI4MoveSaIS0_EE11_S_relocateEPS0_S3_S3_RS1_, symObjAddr: 0x59CC, symBinAddr: 0x1000061B4, symSize: 0x34 }
  - { offset: 0xE295, size: 0x8, addend: 0x0, symName: __ZNSt6vectorI4MoveSaIS0_EE12_Guard_allocD1Ev, symObjAddr: 0x5980, symBinAddr: 0x100006168, symSize: 0x4C }
  - { offset: 0xE2FC, size: 0x8, addend: 0x0, symName: __ZNSt6vectorI4MoveSaIS0_EE12_Guard_allocC1EPS0_mRSt12_Vector_baseIS0_S1_E, symObjAddr: 0x593C, symBinAddr: 0x100006124, symSize: 0x44 }
  - { offset: 0xE33C, size: 0x8, addend: 0x0, symName: __ZNSt12_Vector_baseI4MoveSaIS0_EE11_M_allocateEm, symObjAddr: 0x58EC, symBinAddr: 0x1000060D4, symSize: 0x50 }
  - { offset: 0xE3A3, size: 0x8, addend: 0x0, symName: __ZNKSt6vectorI4MoveSaIS0_EE12_M_check_lenEmPKc, symObjAddr: 0x581C, symBinAddr: 0x100006004, symSize: 0xD0 }
  - { offset: 0xE44A, size: 0x8, addend: 0x0, symName: __ZNSt15__new_allocatorI4MoveE10deallocateEPS0_m, symObjAddr: 0x57EC, symBinAddr: 0x100005FD4, symSize: 0x30 }
  - { offset: 0xE496, size: 0x8, addend: 0x0, symName: __ZNSt23mersenne_twister_engineIjLm32ELm624ELm397ELm31ELj2567483615ELm11ELj4294967295ELm7ELj2636928640ELm15ELj4022730752ELm18ELj1812433253EEclEv, symObjAddr: 0x5738, symBinAddr: 0x100005F20, symSize: 0xB4 }
  - { offset: 0xE4D2, size: 0x8, addend: 0x0, symName: __ZNSt24uniform_int_distributionImE5_S_ndIySt23mersenne_twister_engineIjLm32ELm624ELm397ELm31ELj2567483615ELm11ELj4294967295ELm7ELj2636928640ELm15ELj4022730752ELm18ELj1812433253EEjEET1_RT0_S4_, symObjAddr: 0x5694, symBinAddr: 0x100005E7C, symSize: 0xA4 }
  - { offset: 0xE571, size: 0x8, addend: 0x0, symName: __ZNKSt24uniform_int_distributionImE10param_type1aEv, symObjAddr: 0x567C, symBinAddr: 0x100005E64, symSize: 0x18 }
  - { offset: 0xE59A, size: 0x8, addend: 0x0, symName: __ZNKSt24uniform_int_distributionImE10param_type1bEv, symObjAddr: 0x5664, symBinAddr: 0x100005E4C, symSize: 0x18 }
  - { offset: 0xE5BF, size: 0x8, addend: 0x0, symName: __ZSt9make_pairImmESt4pairINSt25__strip_reference_wrapperINSt5decayIT_E4typeEE6__typeENS1_INS2_IT0_E4typeEE6__typeEEOS3_OS8_, symObjAddr: 0x5628, symBinAddr: 0x100005E10, symSize: 0x3C }
  - { offset: 0xE653, size: 0x8, addend: 0x0, symName: __ZSt4swapI4MoveENSt9enable_ifIXsrSt6__and_IJSt6__not_ISt15__is_tuple_likeIT_EESt21is_move_constructibleIS5_ESt18is_move_assignableIS5_EEE5valueEvE4typeERS5_SF_, symObjAddr: 0x55D4, symBinAddr: 0x100005DBC, symSize: 0x54 }
  - { offset: 0xE707, size: 0x8, addend: 0x0, symName: __ZNSt8__detail5__modIjLj624ELj1ELj0EEET_S1_, symObjAddr: 0x55B8, symBinAddr: 0x100005DA0, symSize: 0x1C }
  - { offset: 0xE756, size: 0x8, addend: 0x0, symName: __ZNSt8__detail5__modIjLj0ELj1ELj0EEET_S1_, symObjAddr: 0x559C, symBinAddr: 0x100005D84, symSize: 0x1C }
  - { offset: 0xE7A4, size: 0x8, addend: 0x0, symName: __ZNSt6vectorIPN4MCTS4NodeESaIS2_EE11_S_relocateEPS2_S5_S5_RS3_, symObjAddr: 0x5568, symBinAddr: 0x100005D50, symSize: 0x34 }
  - { offset: 0xE83B, size: 0x8, addend: 0x0, symName: __ZNSt6vectorIPN4MCTS4NodeESaIS2_EE12_Guard_allocD1Ev, symObjAddr: 0x551C, symBinAddr: 0x100005D04, symSize: 0x4C }
  - { offset: 0xE8A2, size: 0x8, addend: 0x0, symName: __ZNSt6vectorIPN4MCTS4NodeESaIS2_EE12_Guard_allocC1EPS2_mRSt12_Vector_baseIS2_S3_E, symObjAddr: 0x54D8, symBinAddr: 0x100005CC0, symSize: 0x44 }
  - { offset: 0xE8E2, size: 0x8, addend: 0x0, symName: __ZNSt12_Vector_baseIPN4MCTS4NodeESaIS2_EE11_M_allocateEm, symObjAddr: 0x5488, symBinAddr: 0x100005C70, symSize: 0x50 }
  - { offset: 0xE982, size: 0x8, addend: 0x0, symName: __ZNKSt6vectorIPN4MCTS4NodeESaIS2_EE12_M_check_lenEmPKc, symObjAddr: 0x53B8, symBinAddr: 0x100005BA0, symSize: 0xD0 }
  - { offset: 0xEA6F, size: 0x8, addend: 0x0, symName: __ZNSt12_Vector_baseI4MoveSaIS0_EE17_Vector_impl_data12_M_swap_dataERS3_, symObjAddr: 0x536C, symBinAddr: 0x100005B54, symSize: 0x4C }
  - { offset: 0xEADE, size: 0x8, addend: 0x0, symName: __ZNSt6vectorI4MoveSaIS0_EEC1ERKS1_, symObjAddr: 0x5344, symBinAddr: 0x100005B2C, symSize: 0x28 }
  - { offset: 0xEB0C, size: 0x8, addend: 0x0, symName: __ZNKSt12_Vector_baseI4MoveSaIS0_EE13get_allocatorEv, symObjAddr: 0x52F4, symBinAddr: 0x100005ADC, symSize: 0x50 }
  - { offset: 0xEBB4, size: 0x8, addend: 0x0, symName: __ZSt4moveIN9__gnu_cxx17__normal_iteratorIP4MoveSt6vectorIS2_SaIS2_EEEES7_ET0_T_S9_S8_, symObjAddr: 0x524C, symBinAddr: 0x100005A34, symSize: 0xA8 }
  - { offset: 0xED89, size: 0x8, addend: 0x0, symName: __ZSt8_DestroyIPPN4MCTS4NodeEEvT_S4_, symObjAddr: 0x5234, symBinAddr: 0x100005A1C, symSize: 0x18 }
  - { offset: 0xEE0C, size: 0x8, addend: 0x0, symName: __ZSt22__final_insertion_sortIN9__gnu_cxx17__normal_iteratorIPZN11start_first11getBestMoveEiE10ScoredMoveSt6vectorIS3_SaIS3_EEEENS0_5__ops15_Iter_comp_iterIZNS2_11getBestMoveEiEUlRKS3_SC_E_EEEvT_SF_T0_, symObjAddr: 0x5128, symBinAddr: 0x100005910, symSize: 0x10C }
  - { offset: 0xEF7D, size: 0x8, addend: 0x0, symName: __ZSt16__introsort_loopIN9__gnu_cxx17__normal_iteratorIPZN11start_first11getBestMoveEiE10ScoredMoveSt6vectorIS3_SaIS3_EEEElNS0_5__ops15_Iter_comp_iterIZNS2_11getBestMoveEiEUlRKS3_SC_E_EEEvT_SF_T0_T1_, symObjAddr: 0x5058, symBinAddr: 0x100005840, symSize: 0xD0 }
  - { offset: 0xF087, size: 0x8, addend: 0x0, symName: __ZSt4__lgIlET_S0_, symObjAddr: 0x5034, symBinAddr: 0x10000581C, symSize: 0x24 }
  - { offset: 0xF0E4, size: 0x8, addend: 0x0, symName: __ZN9__gnu_cxx5__ops15_Iter_comp_iterIZN11start_first11getBestMoveEiEUlRKZNS2_11getBestMoveEiE10ScoredMoveS5_E_EC1ES6_, symObjAddr: 0x501C, symBinAddr: 0x100005804, symSize: 0x18 }
  - { offset: 0xF112, size: 0x8, addend: 0x0, symName: __ZNSt6vectorIZN11start_first11getBestMoveEiE10ScoredMoveSaIS1_EE4backEv, symObjAddr: 0x4F74, symBinAddr: 0x10000575C, symSize: 0xA8 }
  - { offset: 0xF1C8, size: 0x8, addend: 0x0, symName: __ZNSt6vectorIZN11start_first11getBestMoveEiE10ScoredMoveSaIS1_EE17_M_realloc_appendIJS1_EEEvDpOT_, symObjAddr: 0x4D34, symBinAddr: 0x10000551C, symSize: 0x240 }
  - { offset: 0xF473, size: 0x8, addend: 0x0, symName: __ZSt8_DestroyIPZN11start_first11getBestMoveEiE10ScoredMoveEvT_S3_, symObjAddr: 0x4D1C, symBinAddr: 0x100005504, symSize: 0x18 }
  - { offset: 0xF54E, size: 0x8, addend: 0x0, symName: __ZNSt6vectorI4MoveSaIS0_EE4backEv, symObjAddr: 0x4C80, symBinAddr: 0x100005468, symSize: 0x9C }
  - { offset: 0xF604, size: 0x8, addend: 0x0, symName: __ZNSt6vectorI4MoveSaIS0_EE17_M_realloc_appendIJS0_EEEvDpOT_, symObjAddr: 0x4A8C, symBinAddr: 0x100005274, symSize: 0x1F4 }
  - { offset: 0xF8AF, size: 0x8, addend: 0x0, symName: __ZSt8_DestroyIP4MoveEvT_S2_, symObjAddr: 0x4A74, symBinAddr: 0x10000525C, symSize: 0x18 }
  - { offset: 0xF936, size: 0x8, addend: 0x0, symName: __ZNSt24uniform_int_distributionImEclISt23mersenne_twister_engineIjLm32ELm624ELm397ELm31ELj2567483615ELm11ELj4294967295ELm7ELj2636928640ELm15ELj4022730752ELm18ELj1812433253EEEEmRT_RKNS0_10param_typeE, symObjAddr: 0x4938, symBinAddr: 0x100005120, symSize: 0x13C }
  - { offset: 0xFAD3, size: 0x8, addend: 0x0, symName: __ZNSt24uniform_int_distributionImE10param_typeC1Emm, symObjAddr: 0x48B8, symBinAddr: 0x1000050A0, symSize: 0x80 }
  - { offset: 0xFB39, size: 0x8, addend: 0x0, symName: __ZNSt24uniform_int_distributionImEC1Ev, symObjAddr: 0x4890, symBinAddr: 0x100005078, symSize: 0x28 }
  - { offset: 0xFB5A, size: 0x8, addend: 0x0, symName: __ZSt22__gen_two_uniform_intsImRSt23mersenne_twister_engineIjLm32ELm624ELm397ELm31ELj2567483615ELm11ELj4294967295ELm7ELj2636928640ELm15ELj4022730752ELm18ELj1812433253EEESt4pairIT_S4_ES4_S4_OT0_, symObjAddr: 0x480C, symBinAddr: 0x100004FF4, symSize: 0x84 }
  - { offset: 0xFBC9, size: 0x8, addend: 0x0, symName: __ZSt9iter_swapIN9__gnu_cxx17__normal_iteratorIP4MoveSt6vectorIS2_SaIS2_EEEES7_EvT_T0_, symObjAddr: 0x47E4, symBinAddr: 0x100004FCC, symSize: 0x28 }
  - { offset: 0xFC55, size: 0x8, addend: 0x0, symName: __ZNSt24uniform_int_distributionImEclISt23mersenne_twister_engineIjLm32ELm624ELm397ELm31ELj2567483615ELm11ELj4294967295ELm7ELj2636928640ELm15ELj4022730752ELm18ELj1812433253EEEEmRT_, symObjAddr: 0x47B8, symBinAddr: 0x100004FA0, symSize: 0x2C }
  - { offset: 0xFCE4, size: 0x8, addend: 0x0, symName: __ZNSt24uniform_int_distributionImEC1Emm, symObjAddr: 0x4788, symBinAddr: 0x100004F70, symSize: 0x30 }
  - { offset: 0xFD20, size: 0x8, addend: 0x0, symName: __ZNSt23mersenne_twister_engineIjLm32ELm624ELm397ELm31ELj2567483615ELm11ELj4294967295ELm7ELj2636928640ELm15ELj4022730752ELm18ELj1812433253EE4seedEj, symObjAddr: 0x46BC, symBinAddr: 0x100004EA4, symSize: 0xCC }
  - { offset: 0xFDA2, size: 0x8, addend: 0x0, symName: __ZNSt6vectorIPN4MCTS4NodeESaIS2_EE17_M_realloc_appendIJRKS2_EEEvDpOT_, symObjAddr: 0x44C8, symBinAddr: 0x100004CB0, symSize: 0x1F4 }
  - { offset: 0x1002F, size: 0x8, addend: 0x0, symName: __ZNSt6vectorI4MoveSaIS0_EE14_M_move_assignEOS2_St17integral_constantIbLb1EE, symObjAddr: 0x4434, symBinAddr: 0x100004C1C, symSize: 0x94 }
  - { offset: 0x100F5, size: 0x8, addend: 0x0, symName: __ZNSt6vectorI4MoveSaIS0_EE8_M_eraseEN9__gnu_cxx17__normal_iteratorIPS0_S2_EE, symObjAddr: 0x4314, symBinAddr: 0x100004AFC, symSize: 0x120 }
  - { offset: 0x102CF, size: 0x8, addend: 0x0, symName: __ZNKSt6vectorI4MoveSaIS0_EE6cbeginEv, symObjAddr: 0x42E8, symBinAddr: 0x100004AD0, symSize: 0x2C }
  - { offset: 0x1035B, size: 0x8, addend: 0x0, symName: __ZNKSt6vectorIPN4MCTS4NodeESaIS2_EE3endEv, symObjAddr: 0x42B8, symBinAddr: 0x100004AA0, symSize: 0x30 }
  - { offset: 0x103AE, size: 0x8, addend: 0x0, symName: __ZNKSt6vectorIPN4MCTS4NodeESaIS2_EE5beginEv, symObjAddr: 0x428C, symBinAddr: 0x100004A74, symSize: 0x2C }
  - { offset: 0x1045C, size: 0x8, addend: 0x0, symName: __ZNSt12_Vector_baseIPN4MCTS4NodeESaIS2_EE19_M_get_Tp_allocatorEv, symObjAddr: 0x4278, symBinAddr: 0x100004A60, symSize: 0x14 }
  - { offset: 0x10485, size: 0x8, addend: 0x0, symName: __ZNSt12_Vector_baseIPN4MCTS4NodeESaIS2_EE13_M_deallocateEPS2_m, symObjAddr: 0x4220, symBinAddr: 0x100004A08, symSize: 0x58 }
  - { offset: 0x10521, size: 0x8, addend: 0x0, symName: __ZNSt15__new_allocatorIPN4MCTS4NodeEED2Ev, symObjAddr: 0x420C, symBinAddr: 0x1000049F4, symSize: 0x14 }
  - { offset: 0x10561, size: 0x8, addend: 0x0, symName: __ZNSt12_Vector_baseIPN4MCTS4NodeESaIS2_EE17_Vector_impl_dataC2Ev, symObjAddr: 0x41E0, symBinAddr: 0x1000049C8, symSize: 0x2C }
  - { offset: 0x10598, size: 0x8, addend: 0x0, symName: __ZSt6__sortIN9__gnu_cxx17__normal_iteratorIPZN11start_first11getBestMoveEiE10ScoredMoveSt6vectorIS3_SaIS3_EEEENS0_5__ops15_Iter_comp_iterIZNS2_11getBestMoveEiEUlRKS3_SC_E_EEEvT_SF_T0_, symObjAddr: 0x4128, symBinAddr: 0x100004910, symSize: 0xB8 }
  - { offset: 0x1074F, size: 0x8, addend: 0x0, symName: __ZN9__gnu_cxx5__ops16__iter_comp_iterIZN11start_first11getBestMoveEiEUlRKZNS2_11getBestMoveEiE10ScoredMoveS5_E_EENS0_15_Iter_comp_iterIT_EES8_, symObjAddr: 0x40FC, symBinAddr: 0x1000048E4, symSize: 0x2C }
  - { offset: 0x107A6, size: 0x8, addend: 0x0, symName: __ZNSt6vectorIZN11start_first11getBestMoveEiE10ScoredMoveSaIS1_EE12emplace_backIJS1_EEERS1_DpOT_, symObjAddr: 0x3FF0, symBinAddr: 0x1000047D8, symSize: 0x10C }
  - { offset: 0x10965, size: 0x8, addend: 0x0, symName: __ZNSt12_Vector_baseIZN11start_first11getBestMoveEiE10ScoredMoveSaIS1_EE19_M_get_Tp_allocatorEv, symObjAddr: 0x3FDC, symBinAddr: 0x1000047C4, symSize: 0x14 }
  - { offset: 0x1098E, size: 0x8, addend: 0x0, symName: __ZNSt12_Vector_baseIZN11start_first11getBestMoveEiE10ScoredMoveSaIS1_EE13_M_deallocateEPS1_m, symObjAddr: 0x3F84, symBinAddr: 0x10000476C, symSize: 0x58 }
  - { offset: 0x10A2A, size: 0x8, addend: 0x0, symName: __ZNSt15__new_allocatorIZN11start_first11getBestMoveEiE10ScoredMoveED2Ev, symObjAddr: 0x3F70, symBinAddr: 0x100004758, symSize: 0x14 }
  - { offset: 0x10A6A, size: 0x8, addend: 0x0, symName: __ZNSt12_Vector_baseIZN11start_first11getBestMoveEiE10ScoredMoveSaIS1_EE17_Vector_impl_dataC2Ev, symObjAddr: 0x3F44, symBinAddr: 0x10000472C, symSize: 0x2C }
  - { offset: 0x10AFA, size: 0x8, addend: 0x0, symName: __ZNKSt6vectorI4MoveSaIS0_EE3endEv, symObjAddr: 0x3F14, symBinAddr: 0x1000046FC, symSize: 0x30 }
  - { offset: 0x10B4D, size: 0x8, addend: 0x0, symName: __ZNKSt6vectorI4MoveSaIS0_EE5beginEv, symObjAddr: 0x3EE8, symBinAddr: 0x1000046D0, symSize: 0x2C }
  - { offset: 0x10BA0, size: 0x8, addend: 0x0, symName: __ZNSt6vectorI4MoveSaIS0_EE12emplace_backIJS0_EEERS0_DpOT_, symObjAddr: 0x3DF0, symBinAddr: 0x1000045D8, symSize: 0xF8 }
  - { offset: 0x10D3C, size: 0x8, addend: 0x0, symName: __ZNSt12_Vector_baseI4MoveSaIS0_EE19_M_get_Tp_allocatorEv, symObjAddr: 0x3DDC, symBinAddr: 0x1000045C4, symSize: 0x14 }
  - { offset: 0x10D65, size: 0x8, addend: 0x0, symName: __ZNSt12_Vector_baseI4MoveSaIS0_EE13_M_deallocateEPS0_m, symObjAddr: 0x3D84, symBinAddr: 0x10000456C, symSize: 0x58 }
  - { offset: 0x10E01, size: 0x8, addend: 0x0, symName: __ZNSt15__new_allocatorI4MoveED2Ev, symObjAddr: 0x3D70, symBinAddr: 0x100004558, symSize: 0x14 }
  - { offset: 0x10E41, size: 0x8, addend: 0x0, symName: __ZNSt12_Vector_baseI4MoveSaIS0_EE17_Vector_impl_dataC1Ev, symObjAddr: 0x3D44, symBinAddr: 0x10000452C, symSize: 0x2C }
  - { offset: 0x10E6B, size: 0x8, addend: 0x0, symName: __ZNSt12_Vector_baseI4MoveSaIS0_EE17_Vector_impl_dataC2Ev, symObjAddr: 0x3D18, symBinAddr: 0x100004500, symSize: 0x2C }
  - { offset: 0x10EE6, size: 0x8, addend: 0x0, symName: __ZSt7shuffleIN9__gnu_cxx17__normal_iteratorIP4MoveSt6vectorIS2_SaIS2_EEEERSt23mersenne_twister_engineIjLm32ELm624ELm397ELm31ELj2567483615ELm11ELj4294967295ELm7ELj2636928640ELm15ELj4022730752ELm18ELj1812433253EEEvT_SB_OT0_, symObjAddr: 0x395C, symBinAddr: 0x100004144, symSize: 0x3BC }
  - { offset: 0x1167A, size: 0x8, addend: 0x0, symName: __ZNSt23mersenne_twister_engineIjLm32ELm624ELm397ELm31ELj2567483615ELm11ELj4294967295ELm7ELj2636928640ELm15ELj4022730752ELm18ELj1812433253EEC1Ej, symObjAddr: 0x3934, symBinAddr: 0x10000411C, symSize: 0x28 }
  - { offset: 0x116A8, size: 0x8, addend: 0x0, symName: __ZNKSt6chrono10time_pointINS_3_V212steady_clockENS_8durationIxSt5ratioILl1ELl1000000000EEEEE16time_since_epochEv, symObjAddr: 0x391C, symBinAddr: 0x100004104, symSize: 0x18 }
  - { offset: 0x116D1, size: 0x8, addend: 0x0, symName: __ZNSt6vectorIPN4MCTS4NodeESaIS2_EE9push_backERKS2_, symObjAddr: 0x383C, symBinAddr: 0x100004024, symSize: 0xE0 }
  - { offset: 0x117C0, size: 0x8, addend: 0x0, symName: __ZNSt6vectorI4MoveSaIS0_EEaSEOS2_, symObjAddr: 0x3800, symBinAddr: 0x100003FE8, symSize: 0x3C }
  - { offset: 0x1182F, size: 0x8, addend: 0x0, symName: __ZNSt6vectorI4MoveSaIS0_EE5eraseEN9__gnu_cxx17__normal_iteratorIPKS0_S2_EE, symObjAddr: 0x3774, symBinAddr: 0x100003F5C, symSize: 0x8C }
  - { offset: 0x1197A, size: 0x8, addend: 0x0, symName: __ZNSt6vectorI4MoveSaIS0_EEixEm, symObjAddr: 0x36F0, symBinAddr: 0x100003ED8, symSize: 0x84 }
  - { offset: 0x119CF, size: 0x8, addend: 0x0, symName: __ZNKSt6vectorI4MoveSaIS0_EE4sizeEv, symObjAddr: 0x36B0, symBinAddr: 0x100003E98, symSize: 0x40 }
  - { offset: 0x11A09, size: 0x8, addend: 0x0, symName: __ZNKSt6vectorIPN4MCTS4NodeESaIS2_EE5emptyEv, symObjAddr: 0x3658, symBinAddr: 0x100003E40, symSize: 0x58 }
  - { offset: 0x11A9D, size: 0x8, addend: 0x0, symName: __ZSt3logIiEN9__gnu_cxx11__enable_ifIXsrSt12__is_integerIT_E7__valueEdE6__typeES3_, symObjAddr: 0x362C, symBinAddr: 0x100003E14, symSize: 0x2C }
  - { offset: 0x11AE9, size: 0x8, addend: 0x0, symName: __ZNSt6vectorIPN4MCTS4NodeESaIS2_EE3endEv, symObjAddr: 0x35FC, symBinAddr: 0x100003DE4, symSize: 0x30 }
  - { offset: 0x11B3C, size: 0x8, addend: 0x0, symName: __ZNSt6vectorIPN4MCTS4NodeESaIS2_EE5beginEv, symObjAddr: 0x35D0, symBinAddr: 0x100003DB8, symSize: 0x2C }
  - { offset: 0x11BAA, size: 0x8, addend: 0x0, symName: __ZNSt6vectorIPN4MCTS4NodeESaIS2_EED1Ev, symObjAddr: 0x3574, symBinAddr: 0x100003D5C, symSize: 0x5C }
  - { offset: 0x11C20, size: 0x8, addend: 0x0, symName: __ZNSt12_Vector_baseIPN4MCTS4NodeESaIS2_EED2Ev, symObjAddr: 0x3524, symBinAddr: 0x100003D0C, symSize: 0x50 }
  - { offset: 0x11C76, size: 0x8, addend: 0x0, symName: __ZNSt12_Vector_baseIPN4MCTS4NodeESaIS2_EE12_Vector_implC1Ev, symObjAddr: 0x34EC, symBinAddr: 0x100003CD4, symSize: 0x38 }
  - { offset: 0x11CE1, size: 0x8, addend: 0x0, symName: __ZNSt6vectorIZN11start_first11getBestMoveEiE10ScoredMoveSaIS1_EEixEm, symObjAddr: 0x345C, symBinAddr: 0x100003C44, symSize: 0x90 }
  - { offset: 0x11D33, size: 0x8, addend: 0x0, symName: __ZSt3minIiERKT_S2_S2_, symObjAddr: 0x3424, symBinAddr: 0x100003C0C, symSize: 0x38 }
  - { offset: 0x11D76, size: 0x8, addend: 0x0, symName: __ZNKSt6vectorIZN11start_first11getBestMoveEiE10ScoredMoveSaIS1_EE4sizeEv, symObjAddr: 0x33D8, symBinAddr: 0x100003BC0, symSize: 0x4C }
  - { offset: 0x11DAC, size: 0x8, addend: 0x0, symName: __ZSt4sortIN9__gnu_cxx17__normal_iteratorIPZN11start_first11getBestMoveEiE10ScoredMoveSt6vectorIS3_SaIS3_EEEEZNS2_11getBestMoveEiEUlRKS3_SA_E_EvT_SC_T0_, symObjAddr: 0x3398, symBinAddr: 0x100003B80, symSize: 0x40 }
  - { offset: 0x11E0D, size: 0x8, addend: 0x0, symName: __ZNSt6vectorIZN11start_first11getBestMoveEiE10ScoredMoveSaIS1_EE3endEv, symObjAddr: 0x3368, symBinAddr: 0x100003B50, symSize: 0x30 }
  - { offset: 0x11E60, size: 0x8, addend: 0x0, symName: __ZNSt6vectorIZN11start_first11getBestMoveEiE10ScoredMoveSaIS1_EE5beginEv, symObjAddr: 0x333C, symBinAddr: 0x100003B24, symSize: 0x2C }
  - { offset: 0x11EB3, size: 0x8, addend: 0x0, symName: __ZNSt6vectorIZN11start_first11getBestMoveEiE10ScoredMoveSaIS1_EE9push_backEOS1_, symObjAddr: 0x3308, symBinAddr: 0x100003AF0, symSize: 0x34 }
  - { offset: 0x11F27, size: 0x8, addend: 0x0, symName: __ZNSt6vectorI4MoveSaIS0_EE3endEv, symObjAddr: 0x32D8, symBinAddr: 0x100003AC0, symSize: 0x30 }
  - { offset: 0x11F7A, size: 0x8, addend: 0x0, symName: __ZNSt6vectorI4MoveSaIS0_EE5beginEv, symObjAddr: 0x32AC, symBinAddr: 0x100003A94, symSize: 0x2C }
  - { offset: 0x11FE8, size: 0x8, addend: 0x0, symName: __ZNSt6vectorIZN11start_first11getBestMoveEiE10ScoredMoveSaIS1_EED1Ev, symObjAddr: 0x3250, symBinAddr: 0x100003A38, symSize: 0x5C }
  - { offset: 0x1205E, size: 0x8, addend: 0x0, symName: __ZNSt12_Vector_baseIZN11start_first11getBestMoveEiE10ScoredMoveSaIS1_EED2Ev, symObjAddr: 0x31F4, symBinAddr: 0x1000039DC, symSize: 0x5C }
  - { offset: 0x120B4, size: 0x8, addend: 0x0, symName: __ZNSt12_Vector_baseIZN11start_first11getBestMoveEiE10ScoredMoveSaIS1_EE12_Vector_implC1Ev, symObjAddr: 0x31BC, symBinAddr: 0x1000039A4, symSize: 0x38 }
  - { offset: 0x1211F, size: 0x8, addend: 0x0, symName: __ZNKSt6vectorI4MoveSaIS0_EE5emptyEv, symObjAddr: 0x3164, symBinAddr: 0x10000394C, symSize: 0x58 }
  - { offset: 0x121B7, size: 0x8, addend: 0x0, symName: __ZNSt6vectorI4MoveSaIS0_EE9push_backEOS0_, symObjAddr: 0x3130, symBinAddr: 0x100003918, symSize: 0x34 }
  - { offset: 0x12230, size: 0x8, addend: 0x0, symName: __ZNSt6vectorI4MoveSaIS0_EED1Ev, symObjAddr: 0x30D4, symBinAddr: 0x1000038BC, symSize: 0x5C }
  - { offset: 0x122A6, size: 0x8, addend: 0x0, symName: __ZNSt12_Vector_baseI4MoveSaIS0_EED2Ev, symObjAddr: 0x3084, symBinAddr: 0x10000386C, symSize: 0x50 }
  - { offset: 0x122FC, size: 0x8, addend: 0x0, symName: __ZNSt12_Vector_baseI4MoveSaIS0_EE12_Vector_implC1Ev, symObjAddr: 0x304C, symBinAddr: 0x100003834, symSize: 0x38 }
  - { offset: 0x12363, size: 0x8, addend: 0x0, symName: __ZSt4swapIiENSt9enable_ifIXsrSt6__and_IJSt6__not_ISt15__is_tuple_likeIT_EESt21is_move_constructibleIS4_ESt18is_move_assignableIS4_EEE5valueEvE4typeERS4_SE_, symObjAddr: 0x2FF8, symBinAddr: 0x1000037E0, symSize: 0x54 }
  - { offset: 0x12417, size: 0x8, addend: 0x0, symName: __ZSt3maxImERKT_S2_S2_, symObjAddr: 0x2FC0, symBinAddr: 0x1000037A8, symSize: 0x38 }
  - { offset: 0x12463, size: 0x8, addend: 0x0, symName: _main, symObjAddr: 0x2C50, symBinAddr: 0x100003438, symSize: 0x370 }
  - { offset: 0x12578, size: 0x8, addend: 0x0, symName: __Z15getBlockingMoveR8HexStatei, symObjAddr: 0x2B28, symBinAddr: 0x100003310, symSize: 0x128 }
  - { offset: 0x1263F, size: 0x8, addend: 0x0, symName: __Z14checkDirectWinR8HexStatei, symObjAddr: 0x2A0C, symBinAddr: 0x1000031F4, symSize: 0x11C }
  - { offset: 0x126F5, size: 0x8, addend: 0x0, symName: __Z11countPiecesR8HexState, symObjAddr: 0x2970, symBinAddr: 0x100003158, symSize: 0x9C }
  - { offset: 0x1277B, size: 0x8, addend: 0x0, symName: __ZN4MCTS6searchEd, symObjAddr: 0x27CC, symBinAddr: 0x100002FB4, symSize: 0x1A4 }
  - { offset: 0x1294B, size: 0x8, addend: 0x0, symName: __ZN4MCTSD1Ev, symObjAddr: 0x2788, symBinAddr: 0x100002F70, symSize: 0x44 }
  - { offset: 0x129A5, size: 0x8, addend: 0x0, symName: __ZN4MCTSC1EP8HexStatei, symObjAddr: 0x26C0, symBinAddr: 0x100002EA8, symSize: 0xC8 }
  - { offset: 0x129DC, size: 0x8, addend: 0x0, symName: __ZN4MCTS13generateMovesER8HexStatei, symObjAddr: 0x224C, symBinAddr: 0x100002A34, symSize: 0x474 }
  - { offset: 0x12B0D, size: 0x8, addend: 0x0, symName: __ZZN4MCTS13generateMovesER8HexStateiENKUliiE_clEii, symObjAddr: 0x212C, symBinAddr: 0x100002914, symSize: 0x120 }
  - { offset: 0x12BEA, size: 0x8, addend: 0x0, symName: __ZZN4MCTS13generateMovesER8HexStateiE3rng, symObjAddr: 0x7C68, symBinAddr: 0x100014000, symSize: 0x0 }
  - { offset: 0x12D9E, size: 0x8, addend: 0x0, symName: __ZN4MCTS13backpropagateEPNS_4NodeEi, symObjAddr: 0x20B0, symBinAddr: 0x100002898, symSize: 0x7C }
  - { offset: 0x12DE9, size: 0x8, addend: 0x0, symName: __ZN4MCTS8simulateEPNS_4NodeE, symObjAddr: 0x1F24, symBinAddr: 0x10000270C, symSize: 0x18C }
  - { offset: 0x12E73, size: 0x8, addend: 0x0, symName: __ZN4MCTS6expandEPNS_4NodeE, symObjAddr: 0x1D28, symBinAddr: 0x100002510, symSize: 0x1FC }
  - { offset: 0x12F91, size: 0x8, addend: 0x0, symName: __ZN4MCTS6selectEPNS_4NodeE, symObjAddr: 0x1BE8, symBinAddr: 0x1000023D0, symSize: 0x140 }
  - { offset: 0x13123, size: 0x8, addend: 0x0, symName: __ZN4MCTS3uctEPNS_4NodeES1_, symObjAddr: 0x1B50, symBinAddr: 0x100002338, symSize: 0x98 }
  - { offset: 0x131B8, size: 0x8, addend: 0x0, symName: __ZN4MCTS4NodeD1Ev, symObjAddr: 0x1A7C, symBinAddr: 0x100002264, symSize: 0xD4 }
  - { offset: 0x13389, size: 0x8, addend: 0x0, symName: __ZN4MCTS4NodeC1EPS0_4Movei, symObjAddr: 0x1998, symBinAddr: 0x100002180, symSize: 0xE4 }
  - { offset: 0x133F1, size: 0x8, addend: 0x0, symName: __ZN4MCTS4NodeC1ERK8HexState, symObjAddr: 0x1904, symBinAddr: 0x1000020EC, symSize: 0x94 }
  - { offset: 0x1343A, size: 0x8, addend: 0x0, symName: __ZNSt6vectorIPN4MCTS4NodeESaIS2_EEC1Ev, symObjAddr: 0x18E4, symBinAddr: 0x1000020CC, symSize: 0x20 }
  - { offset: 0x1347A, size: 0x8, addend: 0x0, symName: __ZNSt12_Vector_baseIPN4MCTS4NodeESaIS2_EEC2Ev, symObjAddr: 0x18C4, symBinAddr: 0x1000020AC, symSize: 0x20 }
  - { offset: 0x134BD, size: 0x8, addend: 0x0, symName: __ZNSt12_Vector_baseIPN4MCTS4NodeESaIS2_EE12_Vector_implD1Ev, symObjAddr: 0x1898, symBinAddr: 0x100002080, symSize: 0x2C }
  - { offset: 0x13505, size: 0x8, addend: 0x0, symName: __ZN11start_first11getBestMoveEi, symObjAddr: 0x16D0, symBinAddr: 0x100001EB8, symSize: 0x1C8 }
  - { offset: 0x13604, size: 0x8, addend: 0x0, symName: __ZZN11start_first11getBestMoveEiENKUlRKZNS_11getBestMoveEiE10ScoredMoveS2_E_clES2_S2_, symObjAddr: 0x169C, symBinAddr: 0x100001E84, symSize: 0x34 }
  - { offset: 0x13814, size: 0x8, addend: 0x0, symName: __ZNSt6vectorIZN11start_first11getBestMoveEiE10ScoredMoveSaIS1_EEC1Ev, symObjAddr: 0x167C, symBinAddr: 0x100001E64, symSize: 0x20 }
  - { offset: 0x13854, size: 0x8, addend: 0x0, symName: __ZNSt12_Vector_baseIZN11start_first11getBestMoveEiE10ScoredMoveSaIS1_EEC2Ev, symObjAddr: 0x165C, symBinAddr: 0x100001E44, symSize: 0x20 }
  - { offset: 0x13897, size: 0x8, addend: 0x0, symName: __ZNSt12_Vector_baseIZN11start_first11getBestMoveEiE10ScoredMoveSaIS1_EE12_Vector_implD1Ev, symObjAddr: 0x1630, symBinAddr: 0x100001E18, symSize: 0x2C }
  - { offset: 0x138DF, size: 0x8, addend: 0x0, symName: __ZN11start_first13getCandidatesEv, symObjAddr: 0x14F0, symBinAddr: 0x100001CD8, symSize: 0x140 }
  - { offset: 0x1397C, size: 0x8, addend: 0x0, symName: __ZNSt6vectorI4MoveSaIS0_EEC1Ev, symObjAddr: 0x14D0, symBinAddr: 0x100001CB8, symSize: 0x20 }
  - { offset: 0x139BC, size: 0x8, addend: 0x0, symName: __ZNSt12_Vector_baseI4MoveSaIS0_EEC2Ev, symObjAddr: 0x14B0, symBinAddr: 0x100001C98, symSize: 0x20 }
  - { offset: 0x139FF, size: 0x8, addend: 0x0, symName: __ZNSt12_Vector_baseI4MoveSaIS0_EE12_Vector_implD1Ev, symObjAddr: 0x1484, symBinAddr: 0x100001C6C, symSize: 0x2C }
  - { offset: 0x13A47, size: 0x8, addend: 0x0, symName: __ZN11start_first8evaluateEiii, symObjAddr: 0x1394, symBinAddr: 0x100001B7C, symSize: 0xF0 }
  - { offset: 0x13AB4, size: 0x8, addend: 0x0, symName: __ZN11start_first12center_scoreEii, symObjAddr: 0x133C, symBinAddr: 0x100001B24, symSize: 0x58 }
  - { offset: 0x13B49, size: 0x8, addend: 0x0, symName: __ZN11start_firstC1EP8HexState, symObjAddr: 0x12CC, symBinAddr: 0x100001AB4, symSize: 0x70 }
  - { offset: 0x13B77, size: 0x8, addend: 0x0, symName: __ZN4near8near_anyEii, symObjAddr: 0x11E4, symBinAddr: 0x1000019CC, symSize: 0xE8 }
  - { offset: 0x13C1B, size: 0x8, addend: 0x0, symName: __ZN4near13double_bridgeEiii, symObjAddr: 0xF9C, symBinAddr: 0x100001784, symSize: 0x248 }
  - { offset: 0x13CC4, size: 0x8, addend: 0x0, symName: __ZN4near15neighbour_checkEiii, symObjAddr: 0xEE0, symBinAddr: 0x1000016C8, symSize: 0xBC }
  - { offset: 0x13D94, size: 0x8, addend: 0x0, symName: __ZN4nearC1EP8HexState, symObjAddr: 0xE1C, symBinAddr: 0x100001604, symSize: 0xC4 }
  - { offset: 0x13DC2, size: 0x8, addend: 0x0, symName: __ZN8HexState14placeAndUpdateEiii, symObjAddr: 0xAC0, symBinAddr: 0x1000012A8, symSize: 0x35C }
  - { offset: 0x13ECE, size: 0x8, addend: 0x0, symName: __ZN8HexState8checkWinEi, symObjAddr: 0x9DC, symBinAddr: 0x1000011C4, symSize: 0xE4 }
  - { offset: 0x13F15, size: 0x8, addend: 0x0, symName: __ZN8HexState13initUnionFindEi, symObjAddr: 0x6A4, symBinAddr: 0x100000E8C, symSize: 0x338 }
  - { offset: 0x14058, size: 0x8, addend: 0x0, symName: __ZN8HexState13loadFromInputEiRi, symObjAddr: 0x4C0, symBinAddr: 0x100000CA8, symSize: 0x1E4 }
  - { offset: 0x140DF, size: 0x8, addend: 0x0, symName: __ZNK8HexState5validEii, symObjAddr: 0x43C, symBinAddr: 0x100000C24, symSize: 0x84 }
  - { offset: 0x14126, size: 0x8, addend: 0x0, symName: __ZNK8HexState8in_boardEii, symObjAddr: 0x3F0, symBinAddr: 0x100000BD8, symSize: 0x4C }
  - { offset: 0x1416D, size: 0x8, addend: 0x0, symName: __ZNK8HexState6pos2idEii, symObjAddr: 0x3B0, symBinAddr: 0x100000B98, symSize: 0x40 }
  - { offset: 0x141B4, size: 0x8, addend: 0x0, symName: __ZN8HexState4initEv, symObjAddr: 0x2DC, symBinAddr: 0x100000AC4, symSize: 0xD4 }
  - { offset: 0x1421A, size: 0x8, addend: 0x0, symName: __ZN8HexStateC1Ev, symObjAddr: 0x2BC, symBinAddr: 0x100000AA4, symSize: 0x20 }
  - { offset: 0x1423F, size: 0x8, addend: 0x0, symName: __ZN9UnionFind9connectedEii, symObjAddr: 0x270, symBinAddr: 0x100000A58, symSize: 0x4C }
  - { offset: 0x14286, size: 0x8, addend: 0x0, symName: __ZN9UnionFind5uniteEii, symObjAddr: 0x144, symBinAddr: 0x10000092C, symSize: 0x12C }
  - { offset: 0x142EB, size: 0x8, addend: 0x0, symName: __ZN9UnionFind4findEi, symObjAddr: 0xE0, symBinAddr: 0x1000008C8, symSize: 0x64 }
  - { offset: 0x14323, size: 0x8, addend: 0x0, symName: __ZN9UnionFind4initEv, symObjAddr: 0x80, symBinAddr: 0x100000868, symSize: 0x60 }
  - { offset: 0x1436E, size: 0x8, addend: 0x0, symName: __ZNKSt6chrono8durationIxSt5ratioILl1ELl1000000000EEE5countEv, symObjAddr: 0x68, symBinAddr: 0x100000850, symSize: 0x18 }
  - { offset: 0x14393, size: 0x8, addend: 0x0, symName: __ZSt3minImERKT_S2_S2_, symObjAddr: 0x30, symBinAddr: 0x100000818, symSize: 0x38 }
  - { offset: 0x143DA, size: 0x8, addend: 0x0, symName: __ZdlPvS_, symObjAddr: 0x18, symBinAddr: 0x100000800, symSize: 0x18 }
  - { offset: 0x1440E, size: 0x8, addend: 0x0, symName: __ZnwmPv, symObjAddr: 0x0, symBinAddr: 0x1000007E8, symSize: 0x18 }
...
