---
triple:          'arm64-apple-darwin'
binary-path:     '/Users/a21196/hex_11/main'
relocations:
  - { offset: 0x7A72, size: 0x8, addend: 0x0, symName: __ZStL8__ioinit, symObjAddr: 0x53E5E, symBinAddr: 0x100010000, symSize: 0x0 }
  - { offset: 0x7D73, size: 0x8, addend: 0x0, symName: __ZL4SIZE, symObjAddr: 0x53D8, symBinAddr: 0x1000062D8, symSize: 0x0 }
  - { offset: 0x7D9B, size: 0x8, addend: 0x0, symName: _board, symObjAddr: 0x53E60, symBinAddr: 0x100010008, symSize: 0x0 }
  - { offset: 0x81B1, size: 0x8, addend: 0x0, symName: __ZN4MCTS3rngE, symObjAddr: 0x54108, symBinAddr: 0x1000102B0, symSize: 0x0 }
  - { offset: 0x83D0, size: 0x8, addend: 0x0, symName: __GLOBAL__sub_I_main.cpp, symObjAddr: 0x580C, symBinAddr: 0x100005BB8, symSize: 0x14 }
  - { offset: 0x83E7, size: 0x8, addend: 0x0, symName: __Z41__static_initialization_and_destruction_0v, symObjAddr: 0x57C4, symBinAddr: 0x100005B70, symSize: 0x48 }
  - { offset: 0x8405, size: 0x8, addend: 0x0, symName: __ZSt9__advanceIP4MovelEvRT_T0_St26random_access_iterator_tag, symObjAddr: 0x53A0, symBinAddr: 0x100005B38, symSize: 0x38 }
  - { offset: 0x854F, size: 0x8, addend: 0x0, symName: __ZN9__gnu_cxx5__ops14_Iter_comp_valIZ11decide_movevEUl4MoveS2_E_EclINS_17__normal_iteratorIPS2_St6vectorIS2_SaIS2_EEEES2_EEbT_RT0_, symObjAddr: 0x5368, symBinAddr: 0x100005B00, symSize: 0x38 }
  - { offset: 0x85C7, size: 0x8, addend: 0x0, symName: __ZSt23__copy_move_backward_a2ILb1EP4MoveS1_ET1_T0_S3_S2_, symObjAddr: 0x5274, symBinAddr: 0x100005A0C, symSize: 0xF4 }
  - { offset: 0x8781, size: 0x8, addend: 0x0, symName: __ZSt11__push_heapIN9__gnu_cxx17__normal_iteratorIP4MoveSt6vectorIS2_SaIS2_EEEElS2_NS0_5__ops14_Iter_comp_valIZ11decide_movevEUlS2_S2_E_EEEvT_T0_SD_T1_RT2_, symObjAddr: 0x50E4, symBinAddr: 0x10000587C, symSize: 0x190 }
  - { offset: 0x8A2C, size: 0x8, addend: 0x0, symName: __ZN9__gnu_cxx5__ops14_Iter_comp_valIZ11decide_movevEUl4MoveS2_E_EC1EONS0_15_Iter_comp_iterIS3_EE, symObjAddr: 0x50C4, symBinAddr: 0x10000585C, symSize: 0x20 }
  - { offset: 0x8A6D, size: 0x8, addend: 0x0, symName: __ZSt12__niter_wrapIN9__gnu_cxx17__normal_iteratorIP4MoveSt6vectorIS2_SaIS2_EEEES3_ET_S8_T0_, symObjAddr: 0x5064, symBinAddr: 0x1000057FC, symSize: 0x60 }
  - { offset: 0x8BC2, size: 0x8, addend: 0x0, symName: __ZSt13__adjust_heapIN9__gnu_cxx17__normal_iteratorIP4MoveSt6vectorIS2_SaIS2_EEEElS2_NS0_5__ops15_Iter_comp_iterIZ11decide_movevEUlS2_S2_E_EEEvT_T0_SD_T1_T2_, symObjAddr: 0x4DF0, symBinAddr: 0x100005588, symSize: 0x274 }
  - { offset: 0x8FD8, size: 0x8, addend: 0x0, symName: __ZN9__gnu_cxx5__ops14_Val_comp_iterIZ11decide_movevEUl4MoveS2_E_EclIS2_NS_17__normal_iteratorIPS2_St6vectorIS2_SaIS2_EEEEEEbRT_T0_, symObjAddr: 0x4DB8, symBinAddr: 0x100005550, symSize: 0x38 }
  - { offset: 0x9077, size: 0x8, addend: 0x0, symName: __ZN9__gnu_cxx5__ops14_Val_comp_iterIZ11decide_movevEUl4MoveS2_E_EC1EONS0_15_Iter_comp_iterIS3_EE, symObjAddr: 0x4D98, symBinAddr: 0x100005530, symSize: 0x20 }
  - { offset: 0x911A, size: 0x8, addend: 0x0, symName: __ZSt12__miter_baseIN9__gnu_cxx17__normal_iteratorIP4MoveSt6vectorIS2_SaIS2_EEEEET_S8_, symObjAddr: 0x4D84, symBinAddr: 0x10000551C, symSize: 0x14 }
  - { offset: 0x914D, size: 0x8, addend: 0x0, symName: __ZSt9iter_swapIN9__gnu_cxx17__normal_iteratorIP4MoveSt6vectorIS2_SaIS2_EEEES7_EvT_T0_, symObjAddr: 0x4D5C, symBinAddr: 0x1000054F4, symSize: 0x28 }
  - { offset: 0x91EE, size: 0x8, addend: 0x0, symName: __ZSt10__pop_heapIN9__gnu_cxx17__normal_iteratorIP4MoveSt6vectorIS2_SaIS2_EEEENS0_5__ops15_Iter_comp_iterIZ11decide_movevEUlS2_S2_E_EEEvT_SC_SC_RT0_, symObjAddr: 0x4CC4, symBinAddr: 0x10000545C, symSize: 0x98 }
  - { offset: 0x93FD, size: 0x8, addend: 0x0, symName: __ZSt11__make_heapIN9__gnu_cxx17__normal_iteratorIP4MoveSt6vectorIS2_SaIS2_EEEENS0_5__ops15_Iter_comp_iterIZ11decide_movevEUlS2_S2_E_EEEvT_SC_RT0_, symObjAddr: 0x4B98, symBinAddr: 0x100005330, symSize: 0x12C }
  - { offset: 0x9679, size: 0x8, addend: 0x0, symName: __ZSt14__relocate_a_1I4MoveS0_ENSt9enable_ifIXsrSt24__is_bitwise_relocatableIT_vE5valueEPS3_E4typeES5_S5_S5_RSaIT0_E, symObjAddr: 0x4B34, symBinAddr: 0x1000052CC, symSize: 0x64 }
  - { offset: 0x96FD, size: 0x8, addend: 0x0, symName: __ZNSt15__new_allocatorI4MoveE8allocateEmPKv, symObjAddr: 0x4AB8, symBinAddr: 0x100005250, symSize: 0x7C }
  - { offset: 0x976F, size: 0x8, addend: 0x0, symName: __ZSt18uninitialized_copyIN9__gnu_cxx17__normal_iteratorIP4MoveSt6vectorIS2_SaIS2_EEEES3_ET0_T_S9_S8_, symObjAddr: 0x4A20, symBinAddr: 0x1000051B8, symSize: 0x98 }
  - { offset: 0x98DA, size: 0x8, addend: 0x0, symName: __ZNSt6vectorI4MoveSaIS0_EE11_S_max_sizeERKS1_, symObjAddr: 0x49CC, symBinAddr: 0x100005164, symSize: 0x54 }
  - { offset: 0x9991, size: 0x8, addend: 0x0, symName: __ZSt25__unguarded_linear_insertIN9__gnu_cxx17__normal_iteratorIP4MoveSt6vectorIS2_SaIS2_EEEENS0_5__ops14_Val_comp_iterIZ11decide_movevEUlS2_S2_E_EEEvT_T0_, symObjAddr: 0x4928, symBinAddr: 0x1000050C0, symSize: 0xA4 }
  - { offset: 0x9B2F, size: 0x8, addend: 0x0, symName: __ZN9__gnu_cxx5__ops15__val_comp_iterIZ11decide_movevEUl4MoveS2_E_EENS0_14_Val_comp_iterIT_EENS0_15_Iter_comp_iterIS5_EE, symObjAddr: 0x48F8, symBinAddr: 0x100005090, symSize: 0x30 }
  - { offset: 0x9BC9, size: 0x8, addend: 0x0, symName: __ZN9__gnu_cxx5__ops15_Iter_comp_iterIZ11decide_movevEUl4MoveS2_E_EclINS_17__normal_iteratorIPS2_St6vectorIS2_SaIS2_EEEESB_EEbT_T0_, symObjAddr: 0x48C0, symBinAddr: 0x100005058, symSize: 0x38 }
  - { offset: 0x9C61, size: 0x8, addend: 0x0, symName: __ZSt21__unguarded_partitionIN9__gnu_cxx17__normal_iteratorIP4MoveSt6vectorIS2_SaIS2_EEEENS0_5__ops15_Iter_comp_iterIZ11decide_movevEUlS2_S2_E_EEET_SC_SC_SC_T0_, symObjAddr: 0x47CC, symBinAddr: 0x100004F64, symSize: 0xF4 }
  - { offset: 0x9DC3, size: 0x8, addend: 0x0, symName: __ZSt22__move_median_to_firstIN9__gnu_cxx17__normal_iteratorIP4MoveSt6vectorIS2_SaIS2_EEEENS0_5__ops15_Iter_comp_iterIZ11decide_movevEUlS2_S2_E_EEEvT_SC_SC_SC_T0_, symObjAddr: 0x46BC, symBinAddr: 0x100004E54, symSize: 0x110 }
  - { offset: 0x9E3E, size: 0x8, addend: 0x0, symName: __ZSt11__sort_heapIN9__gnu_cxx17__normal_iteratorIP4MoveSt6vectorIS2_SaIS2_EEEENS0_5__ops15_Iter_comp_iterIZ11decide_movevEUlS2_S2_E_EEEvT_SC_RT0_, symObjAddr: 0x4630, symBinAddr: 0x100004DC8, symSize: 0x8C }
  - { offset: 0x9F2C, size: 0x8, addend: 0x0, symName: __ZSt13__heap_selectIN9__gnu_cxx17__normal_iteratorIP4MoveSt6vectorIS2_SaIS2_EEEENS0_5__ops15_Iter_comp_iterIZ11decide_movevEUlS2_S2_E_EEEvT_SC_SC_T0_, symObjAddr: 0x456C, symBinAddr: 0x100004D04, symSize: 0xC4 }
  - { offset: 0xA04F, size: 0x8, addend: 0x0, symName: __ZSt13__countl_zeroImEiT_, symObjAddr: 0x454C, symBinAddr: 0x100004CE4, symSize: 0x20 }
  - { offset: 0xA091, size: 0x8, addend: 0x0, symName: __ZSt14__relocate_a_1IPN4MCTS4NodeES2_ENSt9enable_ifIXsrSt24__is_bitwise_relocatableIT_vE5valueEPS5_E4typeES7_S7_S7_RSaIT0_E, symObjAddr: 0x44E8, symBinAddr: 0x100004C80, symSize: 0x64 }
  - { offset: 0xA134, size: 0x8, addend: 0x0, symName: __ZNSt15__new_allocatorIPN4MCTS4NodeEE8allocateEmPKv, symObjAddr: 0x446C, symBinAddr: 0x100004C04, symSize: 0x7C }
  - { offset: 0xA1AA, size: 0x8, addend: 0x0, symName: __ZNKSt12_Vector_baseIPN4MCTS4NodeESaIS2_EE19_M_get_Tp_allocatorEv, symObjAddr: 0x4458, symBinAddr: 0x100004BF0, symSize: 0x14 }
  - { offset: 0xA1D0, size: 0x8, addend: 0x0, symName: __ZNSt6vectorIPN4MCTS4NodeESaIS2_EE11_S_max_sizeERKS3_, symObjAddr: 0x4404, symBinAddr: 0x100004B9C, symSize: 0x54 }
  - { offset: 0xA287, size: 0x8, addend: 0x0, symName: __ZSt12__relocate_aIP4MoveS1_SaIS0_EET0_T_S4_S3_RT1_, symObjAddr: 0x43B8, symBinAddr: 0x100004B50, symSize: 0x4C }
  - { offset: 0xA393, size: 0x8, addend: 0x0, symName: __ZNKSt6vectorI4MoveSaIS0_EE8max_sizeEv, symObjAddr: 0x4398, symBinAddr: 0x100004B30, symSize: 0x20 }
  - { offset: 0xA400, size: 0x8, addend: 0x0, symName: __ZSt22__uninitialized_copy_aIN9__gnu_cxx17__normal_iteratorIP4MoveSt6vectorIS2_SaIS2_EEEES7_S3_S2_ET1_T_T0_S8_RSaIT2_E, symObjAddr: 0x4368, symBinAddr: 0x100004B00, symSize: 0x30 }
  - { offset: 0xA49D, size: 0x8, addend: 0x0, symName: __ZNSt6vectorI4MoveSaIS0_EE17_S_check_init_lenEmRKS1_, symObjAddr: 0x42E4, symBinAddr: 0x100004A7C, symSize: 0x84 }
  - { offset: 0xA57F, size: 0x8, addend: 0x0, symName: __ZSt26__unguarded_insertion_sortIN9__gnu_cxx17__normal_iteratorIP4MoveSt6vectorIS2_SaIS2_EEEENS0_5__ops15_Iter_comp_iterIZ11decide_movevEUlS2_S2_E_EEEvT_SC_T0_, symObjAddr: 0x4250, symBinAddr: 0x1000049E8, symSize: 0x94 }
  - { offset: 0xA691, size: 0x8, addend: 0x0, symName: __ZSt16__insertion_sortIN9__gnu_cxx17__normal_iteratorIP4MoveSt6vectorIS2_SaIS2_EEEENS0_5__ops15_Iter_comp_iterIZ11decide_movevEUlS2_S2_E_EEEvT_SC_T0_, symObjAddr: 0x404C, symBinAddr: 0x1000047E4, symSize: 0x204 }
  - { offset: 0xAB16, size: 0x8, addend: 0x0, symName: __ZSt27__unguarded_partition_pivotIN9__gnu_cxx17__normal_iteratorIP4MoveSt6vectorIS2_SaIS2_EEEENS0_5__ops15_Iter_comp_iterIZ11decide_movevEUlS2_S2_E_EEET_SC_SC_T0_, symObjAddr: 0x3F1C, symBinAddr: 0x1000046B4, symSize: 0x130 }
  - { offset: 0xAD3C, size: 0x8, addend: 0x0, symName: __ZSt14__partial_sortIN9__gnu_cxx17__normal_iteratorIP4MoveSt6vectorIS2_SaIS2_EEEENS0_5__ops15_Iter_comp_iterIZ11decide_movevEUlS2_S2_E_EEEvT_SC_SC_T0_, symObjAddr: 0x3ED0, symBinAddr: 0x100004668, symSize: 0x4C }
  - { offset: 0xADAB, size: 0x8, addend: 0x0, symName: __ZSt11__bit_widthImEiT_, symObjAddr: 0x3EA0, symBinAddr: 0x100004638, symSize: 0x30 }
  - { offset: 0xADEF, size: 0x8, addend: 0x0, symName: __ZSt12__relocate_aIPPN4MCTS4NodeES3_SaIS2_EET0_T_S6_S5_RT1_, symObjAddr: 0x3E54, symBinAddr: 0x1000045EC, symSize: 0x4C }
  - { offset: 0xAEF7, size: 0x8, addend: 0x0, symName: __ZSt3maxImERKT_S2_S2_, symObjAddr: 0x3E1C, symBinAddr: 0x1000045B4, symSize: 0x38 }
  - { offset: 0xAF3F, size: 0x8, addend: 0x0, symName: __ZNKSt6vectorIPN4MCTS4NodeESaIS2_EE4sizeEv, symObjAddr: 0x3DDC, symBinAddr: 0x100004574, symSize: 0x40 }
  - { offset: 0xAF7A, size: 0x8, addend: 0x0, symName: __ZNKSt6vectorIPN4MCTS4NodeESaIS2_EE8max_sizeEv, symObjAddr: 0x3DBC, symBinAddr: 0x100004554, symSize: 0x20 }
  - { offset: 0xAFA4, size: 0x8, addend: 0x0, symName: __ZNSt12_Vector_baseI4MoveSaIS0_EE17_Vector_impl_data12_M_copy_dataERKS3_, symObjAddr: 0x3D74, symBinAddr: 0x10000450C, symSize: 0x48 }
  - { offset: 0xAFE2, size: 0x8, addend: 0x0, symName: __ZNSt23mersenne_twister_engineIjLm32ELm624ELm397ELm31ELj2567483615ELm11ELj4294967295ELm7ELj2636928640ELm15ELj4022730752ELm18ELj1812433253EE11_M_gen_randEv, symObjAddr: 0x3BB4, symBinAddr: 0x10000434C, symSize: 0x1C0 }
  - { offset: 0xB0CF, size: 0x8, addend: 0x0, symName: __ZNSt15__new_allocatorIPN4MCTS4NodeEE10deallocateEPS2_m, symObjAddr: 0x3B84, symBinAddr: 0x10000431C, symSize: 0x30 }
  - { offset: 0xB115, size: 0x8, addend: 0x0, symName: __ZNSt6vectorI4MoveSaIS0_EE11_S_relocateEPS0_S3_S3_RS1_, symObjAddr: 0x3B50, symBinAddr: 0x1000042E8, symSize: 0x34 }
  - { offset: 0xB1AE, size: 0x8, addend: 0x0, symName: __ZNSt6vectorI4MoveSaIS0_EE12_Guard_allocD1Ev, symObjAddr: 0x3B04, symBinAddr: 0x10000429C, symSize: 0x4C }
  - { offset: 0xB218, size: 0x8, addend: 0x0, symName: __ZNSt6vectorI4MoveSaIS0_EE12_Guard_allocC1EPS0_mRSt12_Vector_baseIS0_S1_E, symObjAddr: 0x3AC0, symBinAddr: 0x100004258, symSize: 0x44 }
  - { offset: 0xB259, size: 0x8, addend: 0x0, symName: __ZNSt12_Vector_baseI4MoveSaIS0_EE11_M_allocateEm, symObjAddr: 0x3A70, symBinAddr: 0x100004208, symSize: 0x50 }
  - { offset: 0xB2C1, size: 0x8, addend: 0x0, symName: __ZNKSt6vectorI4MoveSaIS0_EE12_M_check_lenEmPKc, symObjAddr: 0x39A0, symBinAddr: 0x100004138, symSize: 0xD0 }
  - { offset: 0xB36A, size: 0x8, addend: 0x0, symName: __ZNSt15__new_allocatorI4MoveE10deallocateEPS0_m, symObjAddr: 0x3970, symBinAddr: 0x100004108, symSize: 0x30 }
  - { offset: 0xB3B0, size: 0x8, addend: 0x0, symName: __ZSt18uninitialized_copyIN9__gnu_cxx17__normal_iteratorIPK4MoveSt6vectorIS2_SaIS2_EEEEPS2_ET0_T_SB_SA_, symObjAddr: 0x38D8, symBinAddr: 0x100004070, symSize: 0x98 }
  - { offset: 0xB55B, size: 0x8, addend: 0x0, symName: __ZNSt12_Vector_baseI4MoveSaIS0_EE17_M_create_storageEm, symObjAddr: 0x3878, symBinAddr: 0x100004010, symSize: 0x60 }
  - { offset: 0xB5AC, size: 0x8, addend: 0x0, symName: __ZNSt6vectorI4MoveSaIS0_EE21_M_range_initialize_nIN9__gnu_cxx17__normal_iteratorIPS0_S2_EES7_EEvT_T0_m, symObjAddr: 0x37C4, symBinAddr: 0x100003F5C, symSize: 0xB4 }
  - { offset: 0xB69F, size: 0x8, addend: 0x0, symName: __ZNSt12_Vector_baseI4MoveSaIS0_EE12_Vector_implC1ERKS1_, symObjAddr: 0x3778, symBinAddr: 0x100003F10, symSize: 0x4C }
  - { offset: 0xB722, size: 0x8, addend: 0x0, symName: __ZSt22__final_insertion_sortIN9__gnu_cxx17__normal_iteratorIP4MoveSt6vectorIS2_SaIS2_EEEENS0_5__ops15_Iter_comp_iterIZ11decide_movevEUlS2_S2_E_EEEvT_SC_T0_, symObjAddr: 0x3690, symBinAddr: 0x100003E28, symSize: 0xE8 }
  - { offset: 0xB894, size: 0x8, addend: 0x0, symName: __ZSt16__introsort_loopIN9__gnu_cxx17__normal_iteratorIP4MoveSt6vectorIS2_SaIS2_EEEElNS0_5__ops15_Iter_comp_iterIZ11decide_movevEUlS2_S2_E_EEEvT_SC_T0_T1_, symObjAddr: 0x35CC, symBinAddr: 0x100003D64, symSize: 0xC4 }
  - { offset: 0xB99F, size: 0x8, addend: 0x0, symName: __ZSt4__lgIlET_S0_, symObjAddr: 0x35A8, symBinAddr: 0x100003D40, symSize: 0x24 }
  - { offset: 0xB9F9, size: 0x8, addend: 0x0, symName: __ZN9__gnu_cxx5__ops15_Iter_comp_iterIZ11decide_movevEUl4MoveS2_E_EC1ES3_, symObjAddr: 0x3590, symBinAddr: 0x100003D28, symSize: 0x18 }
  - { offset: 0xBA24, size: 0x8, addend: 0x0, symName: __ZNSt8__detail4_ModIjLj624ELj1ELj0ELb1ELb1EE6__calcEj, symObjAddr: 0x3558, symBinAddr: 0x100003CF0, symSize: 0x38 }
  - { offset: 0xBA5C, size: 0x8, addend: 0x0, symName: __ZNSt8__detail4_ModIjLj0ELj1ELj0ELb1ELb0EE6__calcEj, symObjAddr: 0x353C, symBinAddr: 0x100003CD4, symSize: 0x1C }
  - { offset: 0xBACF, size: 0x8, addend: 0x0, symName: __ZNSt6chrono8durationIxSt5ratioILl1ELl1000EEEC1IxvEERKT_, symObjAddr: 0x3514, symBinAddr: 0x100003CAC, symSize: 0x28 }
  - { offset: 0xBB03, size: 0x8, addend: 0x0, symName: __ZNSt6vectorIPN4MCTS4NodeESaIS2_EE11_S_relocateEPS2_S5_S5_RS3_, symObjAddr: 0x34E0, symBinAddr: 0x100003C78, symSize: 0x34 }
  - { offset: 0xBB9C, size: 0x8, addend: 0x0, symName: __ZNSt6vectorIPN4MCTS4NodeESaIS2_EE12_Guard_allocD1Ev, symObjAddr: 0x3494, symBinAddr: 0x100003C2C, symSize: 0x4C }
  - { offset: 0xBC06, size: 0x8, addend: 0x0, symName: __ZNSt6vectorIPN4MCTS4NodeESaIS2_EE12_Guard_allocC1EPS2_mRSt12_Vector_baseIS2_S3_E, symObjAddr: 0x3450, symBinAddr: 0x100003BE8, symSize: 0x44 }
  - { offset: 0xBC47, size: 0x8, addend: 0x0, symName: __ZNSt12_Vector_baseIPN4MCTS4NodeESaIS2_EE11_M_allocateEm, symObjAddr: 0x3400, symBinAddr: 0x100003B98, symSize: 0x50 }
  - { offset: 0xBCEB, size: 0x8, addend: 0x0, symName: __ZNKSt6vectorIPN4MCTS4NodeESaIS2_EE12_M_check_lenEmPKc, symObjAddr: 0x3330, symBinAddr: 0x100003AC8, symSize: 0xD0 }
  - { offset: 0xBDDF, size: 0x8, addend: 0x0, symName: __ZNSt12_Vector_baseI4MoveSaIS0_EE17_Vector_impl_data12_M_swap_dataERS3_, symObjAddr: 0x32E4, symBinAddr: 0x100003A7C, symSize: 0x4C }
  - { offset: 0xBE50, size: 0x8, addend: 0x0, symName: __ZNSt6vectorI4MoveSaIS0_EEC1ERKS1_, symObjAddr: 0x32BC, symBinAddr: 0x100003A54, symSize: 0x28 }
  - { offset: 0xBE7F, size: 0x8, addend: 0x0, symName: __ZNKSt12_Vector_baseI4MoveSaIS0_EE13get_allocatorEv, symObjAddr: 0x326C, symBinAddr: 0x100003A04, symSize: 0x50 }
  - { offset: 0xBF32, size: 0x8, addend: 0x0, symName: __ZNSt23mersenne_twister_engineIjLm32ELm624ELm397ELm31ELj2567483615ELm11ELj4294967295ELm7ELj2636928640ELm15ELj4022730752ELm18ELj1812433253EEclEv, symObjAddr: 0x31B8, symBinAddr: 0x100003950, symSize: 0xB4 }
  - { offset: 0xBF6F, size: 0x8, addend: 0x0, symName: __ZNSt24uniform_int_distributionIiE5_S_ndIySt23mersenne_twister_engineIjLm32ELm624ELm397ELm31ELj2567483615ELm11ELj4294967295ELm7ELj2636928640ELm15ELj4022730752ELm18ELj1812433253EEjEET1_RT0_S4_, symObjAddr: 0x3114, symBinAddr: 0x1000038AC, symSize: 0xA4 }
  - { offset: 0xC00F, size: 0x8, addend: 0x0, symName: __ZNKSt24uniform_int_distributionIiE10param_type1aEv, symObjAddr: 0x30FC, symBinAddr: 0x100003894, symSize: 0x18 }
  - { offset: 0xC039, size: 0x8, addend: 0x0, symName: __ZNKSt24uniform_int_distributionIiE10param_type1bEv, symObjAddr: 0x30E4, symBinAddr: 0x10000387C, symSize: 0x18 }
  - { offset: 0xC05F, size: 0x8, addend: 0x0, symName: __ZSt8_DestroyIPPN4MCTS4NodeEEvT_S4_, symObjAddr: 0x30CC, symBinAddr: 0x100003864, symSize: 0x18 }
  - { offset: 0xC142, size: 0x8, addend: 0x0, symName: __ZNSt6vectorI4MoveSaIS0_EE17_M_realloc_appendIJS0_EEEvDpOT_, symObjAddr: 0x2ED8, symBinAddr: 0x100003670, symSize: 0x1F4 }
  - { offset: 0xC3F4, size: 0x8, addend: 0x0, symName: __ZSt8_DestroyIP4MoveEvT_S2_, symObjAddr: 0x2EC0, symBinAddr: 0x100003658, symSize: 0x18 }
  - { offset: 0xC468, size: 0x8, addend: 0x0, symName: __ZSt3minImERKT_S2_S2_, symObjAddr: 0x2E88, symBinAddr: 0x100003620, symSize: 0x38 }
  - { offset: 0xC4AA, size: 0x8, addend: 0x0, symName: __ZSt22__uninitialized_copy_aIN9__gnu_cxx17__normal_iteratorIPK4MoveSt6vectorIS2_SaIS2_EEEES8_PS2_S2_ET1_T_T0_SA_RSaIT2_E, symObjAddr: 0x2E58, symBinAddr: 0x1000035F0, symSize: 0x30 }
  - { offset: 0xC55D, size: 0x8, addend: 0x0, symName: __ZNSt12_Vector_baseI4MoveSaIS0_EEC2EmRKS1_, symObjAddr: 0x2E04, symBinAddr: 0x10000359C, symSize: 0x54 }
  - { offset: 0xC5AA, size: 0x8, addend: 0x0, symName: __ZNKSt12_Vector_baseI4MoveSaIS0_EE19_M_get_Tp_allocatorEv, symObjAddr: 0x2DF0, symBinAddr: 0x100003588, symSize: 0x14 }
  - { offset: 0xC5D4, size: 0x8, addend: 0x0, symName: __ZNSt6vectorI4MoveSaIS0_EE19_M_range_initializeIN9__gnu_cxx17__normal_iteratorIPS0_S2_EEEEvT_S8_St20forward_iterator_tag, symObjAddr: 0x2D64, symBinAddr: 0x1000034FC, symSize: 0x8C }
  - { offset: 0xC764, size: 0x8, addend: 0x0, symName: __ZNSt12_Vector_baseI4MoveSaIS0_EEC2ERKS1_, symObjAddr: 0x2D3C, symBinAddr: 0x1000034D4, symSize: 0x28 }
  - { offset: 0xC7A5, size: 0x8, addend: 0x0, symName: __ZSt6__sortIN9__gnu_cxx17__normal_iteratorIP4MoveSt6vectorIS2_SaIS2_EEEENS0_5__ops15_Iter_comp_iterIZ11decide_movevEUlS2_S2_E_EEEvT_SC_T0_, symObjAddr: 0x2C90, symBinAddr: 0x100003428, symSize: 0xAC }
  - { offset: 0xC917, size: 0x8, addend: 0x0, symName: __ZN9__gnu_cxx5__ops16__iter_comp_iterIZ11decide_movevEUl4MoveS2_E_EENS0_15_Iter_comp_iterIT_EES5_, symObjAddr: 0x2C64, symBinAddr: 0x1000033FC, symSize: 0x2C }
  - { offset: 0xC96D, size: 0x8, addend: 0x0, symName: __ZNSt8__detail5__modIjLj624ELj1ELj0EEET_S1_, symObjAddr: 0x2C48, symBinAddr: 0x1000033E0, symSize: 0x1C }
  - { offset: 0xC9BE, size: 0x8, addend: 0x0, symName: __ZNSt8__detail5__modIjLj0ELj1ELj0EEET_S1_, symObjAddr: 0x2C2C, symBinAddr: 0x1000033C4, symSize: 0x1C }
  - { offset: 0xCA0E, size: 0x8, addend: 0x0, symName: __ZNSt6chrono20__duration_cast_implINS_8durationIxSt5ratioILl1ELl1000EEEES2_ILl1ELl1000000EExLb1ELb0EE6__castIxS2_ILl1ELl1000000000EEEES4_RKNS1_IT_T0_EE, symObjAddr: 0x2BDC, symBinAddr: 0x100003374, symSize: 0x50 }
  - { offset: 0xCA59, size: 0x8, addend: 0x0, symName: __ZNSt6vectorIPN4MCTS4NodeESaIS2_EE17_M_realloc_appendIJRKS2_EEEvDpOT_, symObjAddr: 0x29E8, symBinAddr: 0x100003180, symSize: 0x1F4 }
  - { offset: 0xCCEB, size: 0x8, addend: 0x0, symName: __ZNSt6vectorI4MoveSaIS0_EE14_M_move_assignEOS2_St17integral_constantIbLb1EE, symObjAddr: 0x2954, symBinAddr: 0x1000030EC, symSize: 0x94 }
  - { offset: 0xCE06, size: 0x8, addend: 0x0, symName: __ZNSt24uniform_int_distributionIiEclISt23mersenne_twister_engineIjLm32ELm624ELm397ELm31ELj2567483615ELm11ELj4294967295ELm7ELj2636928640ELm15ELj4022730752ELm18ELj1812433253EEEEiRT_RKNS0_10param_typeE, symObjAddr: 0x28AC, symBinAddr: 0x100003044, symSize: 0xA8 }
  - { offset: 0xCF7C, size: 0x8, addend: 0x0, symName: __ZNSt24uniform_int_distributionIiE10param_typeC1Eii, symObjAddr: 0x282C, symBinAddr: 0x100002FC4, symSize: 0x80 }
  - { offset: 0xD014, size: 0x8, addend: 0x0, symName: __ZNSt23mersenne_twister_engineIjLm32ELm624ELm397ELm31ELj2567483615ELm11ELj4294967295ELm7ELj2636928640ELm15ELj4022730752ELm18ELj1812433253EEC1Ej, symObjAddr: 0x2804, symBinAddr: 0x100002F9C, symSize: 0x28 }
  - { offset: 0xD07E, size: 0x8, addend: 0x0, symName: __ZNSt12_Vector_baseIPN4MCTS4NodeESaIS2_EE19_M_get_Tp_allocatorEv, symObjAddr: 0x27F0, symBinAddr: 0x100002F88, symSize: 0x14 }
  - { offset: 0xD0A8, size: 0x8, addend: 0x0, symName: __ZNSt12_Vector_baseIPN4MCTS4NodeESaIS2_EE13_M_deallocateEPS2_m, symObjAddr: 0x2798, symBinAddr: 0x100002F30, symSize: 0x58 }
  - { offset: 0xD144, size: 0x8, addend: 0x0, symName: __ZNSt15__new_allocatorIPN4MCTS4NodeEED2Ev, symObjAddr: 0x2784, symBinAddr: 0x100002F1C, symSize: 0x14 }
  - { offset: 0xD184, size: 0x8, addend: 0x0, symName: __ZNSt12_Vector_baseIPN4MCTS4NodeESaIS2_EE17_Vector_impl_dataC2Ev, symObjAddr: 0x2758, symBinAddr: 0x100002EF0, symSize: 0x2C }
  - { offset: 0xD219, size: 0x8, addend: 0x0, symName: __ZNKSt6vectorI4MoveSaIS0_EE3endEv, symObjAddr: 0x2728, symBinAddr: 0x100002EC0, symSize: 0x30 }
  - { offset: 0xD26D, size: 0x8, addend: 0x0, symName: __ZNKSt6vectorI4MoveSaIS0_EE5beginEv, symObjAddr: 0x26FC, symBinAddr: 0x100002E94, symSize: 0x2C }
  - { offset: 0xD2C1, size: 0x8, addend: 0x0, symName: __ZNSt6vectorI4MoveSaIS0_EE12emplace_backIJS0_EEERS0_DpOT_, symObjAddr: 0x2604, symBinAddr: 0x100002D9C, symSize: 0xF8 }
  - { offset: 0xD464, size: 0x8, addend: 0x0, symName: __ZNSt12_Vector_baseI4MoveSaIS0_EE19_M_get_Tp_allocatorEv, symObjAddr: 0x25F0, symBinAddr: 0x100002D88, symSize: 0x14 }
  - { offset: 0xD48E, size: 0x8, addend: 0x0, symName: __ZNSt12_Vector_baseI4MoveSaIS0_EE13_M_deallocateEPS0_m, symObjAddr: 0x2598, symBinAddr: 0x100002D30, symSize: 0x58 }
  - { offset: 0xD52A, size: 0x8, addend: 0x0, symName: __ZNSt15__new_allocatorI4MoveED2Ev, symObjAddr: 0x2584, symBinAddr: 0x100002D1C, symSize: 0x14 }
  - { offset: 0xD56A, size: 0x8, addend: 0x0, symName: __ZNSt12_Vector_baseI4MoveSaIS0_EE17_Vector_impl_dataC1Ev, symObjAddr: 0x2558, symBinAddr: 0x100002CF0, symSize: 0x2C }
  - { offset: 0xD594, size: 0x8, addend: 0x0, symName: __ZNSt12_Vector_baseI4MoveSaIS0_EE17_Vector_impl_dataC2Ev, symObjAddr: 0x252C, symBinAddr: 0x100002CC4, symSize: 0x2C }
  - { offset: 0xD5E2, size: 0x8, addend: 0x0, symName: __ZNSt6vectorI4MoveSaIS0_EEC1ERKS2_, symObjAddr: 0x2418, symBinAddr: 0x100002BB0, symSize: 0x114 }
  - { offset: 0xD742, size: 0x8, addend: 0x0, symName: __ZNSt6vectorI4MoveSaIS0_EEC1IN9__gnu_cxx17__normal_iteratorIPS0_S2_EEvEET_S8_RKS1_, symObjAddr: 0x23B4, symBinAddr: 0x100002B4C, symSize: 0x64 }
  - { offset: 0xD7E9, size: 0x8, addend: 0x0, symName: __ZSt3minIiERKT_S2_S2_, symObjAddr: 0x237C, symBinAddr: 0x100002B14, symSize: 0x38 }
  - { offset: 0xD82B, size: 0x8, addend: 0x0, symName: __ZSt4sortIN9__gnu_cxx17__normal_iteratorIP4MoveSt6vectorIS2_SaIS2_EEEEZ11decide_movevEUlS2_S2_E_EvT_S9_T0_, symObjAddr: 0x233C, symBinAddr: 0x100002AD4, symSize: 0x40 }
  - { offset: 0xD8A3, size: 0x8, addend: 0x0, symName: __ZNSt6vectorI4MoveSaIS0_EE3endEv, symObjAddr: 0x230C, symBinAddr: 0x100002AA4, symSize: 0x30 }
  - { offset: 0xD8F7, size: 0x8, addend: 0x0, symName: __ZNSt6vectorI4MoveSaIS0_EE5beginEv, symObjAddr: 0x22E0, symBinAddr: 0x100002A78, symSize: 0x2C }
  - { offset: 0xD94F, size: 0x8, addend: 0x0, symName: __ZNSt23mersenne_twister_engineIjLm32ELm624ELm397ELm31ELj2567483615ELm11ELj4294967295ELm7ELj2636928640ELm15ELj4022730752ELm18ELj1812433253EE4seedEj, symObjAddr: 0x2214, symBinAddr: 0x1000029AC, symSize: 0xCC }
  - { offset: 0xD9CE, size: 0x8, addend: 0x0, symName: __ZNSt6chronomiIxSt5ratioILl1ELl1000000000EExS2_EENSt11common_typeIJNS_8durationIT_T0_EENS4_IT1_T2_EEEE4typeERKS7_RKSA_, symObjAddr: 0x21B0, symBinAddr: 0x100002948, symSize: 0x64 }
  - { offset: 0xDA3E, size: 0x8, addend: 0x0, symName: __ZNKSt6chrono8durationIxSt5ratioILl1ELl1000EEE5countEv, symObjAddr: 0x2198, symBinAddr: 0x100002930, symSize: 0x18 }
  - { offset: 0xDA64, size: 0x8, addend: 0x0, symName: __ZNSt6chrono13duration_castINS_8durationIxSt5ratioILl1ELl1000EEEExS2_ILl1ELl1000000000EEEENSt9enable_ifIXsrNS_13__is_durationIT_EE5valueES8_E4typeERKNS1_IT0_T1_EE, symObjAddr: 0x217C, symBinAddr: 0x100002914, symSize: 0x1C }
  - { offset: 0xDABF, size: 0x8, addend: 0x0, symName: __ZNSt6vectorIPN4MCTS4NodeESaIS2_EE9push_backERKS2_, symObjAddr: 0x209C, symBinAddr: 0x100002834, symSize: 0xE0 }
  - { offset: 0xDBAF, size: 0x8, addend: 0x0, symName: __ZNSt6vectorI4MoveSaIS0_EEaSEOS2_, symObjAddr: 0x2060, symBinAddr: 0x1000027F8, symSize: 0x3C }
  - { offset: 0xDC1F, size: 0x8, addend: 0x0, symName: __ZNSt6vectorI4MoveSaIS0_EE8pop_backEv, symObjAddr: 0x1FC4, symBinAddr: 0x10000275C, symSize: 0x9C }
  - { offset: 0xDCBA, size: 0x8, addend: 0x0, symName: __ZSt4swapI4MoveENSt9enable_ifIXsrSt6__and_IJSt6__not_ISt15__is_tuple_likeIT_EESt21is_move_constructibleIS5_ESt18is_move_assignableIS5_EEE5valueEvE4typeERS5_SF_, symObjAddr: 0x1F70, symBinAddr: 0x100002708, symSize: 0x54 }
  - { offset: 0xDD75, size: 0x8, addend: 0x0, symName: __ZNSt6vectorI4MoveSaIS0_EE4backEv, symObjAddr: 0x1ED4, symBinAddr: 0x10000266C, symSize: 0x9C }
  - { offset: 0xDE2C, size: 0x8, addend: 0x0, symName: __ZNSt6vectorI4MoveSaIS0_EEixEm, symObjAddr: 0x1E50, symBinAddr: 0x1000025E8, symSize: 0x84 }
  - { offset: 0xDE82, size: 0x8, addend: 0x0, symName: __ZNSt24uniform_int_distributionIiEclISt23mersenne_twister_engineIjLm32ELm624ELm397ELm31ELj2567483615ELm11ELj4294967295ELm7ELj2636928640ELm15ELj4022730752ELm18ELj1812433253EEEEiRT_, symObjAddr: 0x1E24, symBinAddr: 0x1000025BC, symSize: 0x2C }
  - { offset: 0xDEF9, size: 0x8, addend: 0x0, symName: __ZNSt24uniform_int_distributionIiEC1Eii, symObjAddr: 0x1DF4, symBinAddr: 0x10000258C, symSize: 0x30 }
  - { offset: 0xDF31, size: 0x8, addend: 0x0, symName: __ZNKSt6vectorI4MoveSaIS0_EE4sizeEv, symObjAddr: 0x1DB4, symBinAddr: 0x10000254C, symSize: 0x40 }
  - { offset: 0xDF68, size: 0x8, addend: 0x0, symName: __ZSt3logIiEN9__gnu_cxx11__enable_ifIXsrSt12__is_integerIT_E7__valueEdE6__typeES3_, symObjAddr: 0x1D88, symBinAddr: 0x100002520, symSize: 0x2C }
  - { offset: 0xDFB5, size: 0x8, addend: 0x0, symName: __ZNSt6vectorIPN4MCTS4NodeESaIS2_EE3endEv, symObjAddr: 0x1D58, symBinAddr: 0x1000024F0, symSize: 0x30 }
  - { offset: 0xE009, size: 0x8, addend: 0x0, symName: __ZNSt6vectorIPN4MCTS4NodeESaIS2_EE5beginEv, symObjAddr: 0x1D2C, symBinAddr: 0x1000024C4, symSize: 0x2C }
  - { offset: 0xE077, size: 0x8, addend: 0x0, symName: __ZNSt23mersenne_twister_engineIjLm32ELm624ELm397ELm31ELj2567483615ELm11ELj4294967295ELm7ELj2636928640ELm15ELj4022730752ELm18ELj1812433253EEC1Ev, symObjAddr: 0x1D08, symBinAddr: 0x1000024A0, symSize: 0x24 }
  - { offset: 0xE0B7, size: 0x8, addend: 0x0, symName: __ZNSt6vectorIPN4MCTS4NodeESaIS2_EED1Ev, symObjAddr: 0x1CAC, symBinAddr: 0x100002444, symSize: 0x5C }
  - { offset: 0xE12D, size: 0x8, addend: 0x0, symName: __ZNSt12_Vector_baseIPN4MCTS4NodeESaIS2_EED2Ev, symObjAddr: 0x1C5C, symBinAddr: 0x1000023F4, symSize: 0x50 }
  - { offset: 0xE183, size: 0x8, addend: 0x0, symName: __ZNSt12_Vector_baseIPN4MCTS4NodeESaIS2_EE12_Vector_implC1Ev, symObjAddr: 0x1C24, symBinAddr: 0x1000023BC, symSize: 0x38 }
  - { offset: 0xE1EF, size: 0x8, addend: 0x0, symName: __ZNKSt6vectorI4MoveSaIS0_EE5emptyEv, symObjAddr: 0x1BCC, symBinAddr: 0x100002364, symSize: 0x58 }
  - { offset: 0xE288, size: 0x8, addend: 0x0, symName: __ZNSt6vectorI4MoveSaIS0_EE9push_backEOS0_, symObjAddr: 0x1B98, symBinAddr: 0x100002330, symSize: 0x34 }
  - { offset: 0xE301, size: 0x8, addend: 0x0, symName: __ZNSt6vectorI4MoveSaIS0_EED1Ev, symObjAddr: 0x1B3C, symBinAddr: 0x1000022D4, symSize: 0x5C }
  - { offset: 0xE377, size: 0x8, addend: 0x0, symName: __ZNSt12_Vector_baseI4MoveSaIS0_EED2Ev, symObjAddr: 0x1AEC, symBinAddr: 0x100002284, symSize: 0x50 }
  - { offset: 0xE3CD, size: 0x8, addend: 0x0, symName: __ZNSt12_Vector_baseI4MoveSaIS0_EE12_Vector_implC1Ev, symObjAddr: 0x1AB4, symBinAddr: 0x10000224C, symSize: 0x38 }
  - { offset: 0xE43D, size: 0x8, addend: 0x0, symName: _main, symObjAddr: 0x1868, symBinAddr: 0x100002000, symSize: 0x24C }
  - { offset: 0xE4EC, size: 0x8, addend: 0x0, symName: __Z11decide_movev, symObjAddr: 0x1654, symBinAddr: 0x100001DEC, symSize: 0x214 }
  - { offset: 0xE574, size: 0x8, addend: 0x0, symName: __ZZ11decide_movevENKUl4MoveS_E_clES_S_, symObjAddr: 0x1604, symBinAddr: 0x100001D9C, symSize: 0x50 }
  - { offset: 0xE829, size: 0x8, addend: 0x0, symName: __Z11mcts_selectSt6vectorI4MoveSaIS0_EE, symObjAddr: 0x15C8, symBinAddr: 0x100001D60, symSize: 0x3C }
  - { offset: 0xE854, size: 0x8, addend: 0x0, symName: __ZN4MCTS6searchEi, symObjAddr: 0x1310, symBinAddr: 0x100001AA8, symSize: 0x2B8 }
  - { offset: 0xEA85, size: 0x8, addend: 0x0, symName: __ZNKSt6chrono10time_pointINS_3_V212system_clockENS_8durationIxSt5ratioILl1ELl1000000000EEEEE16time_since_epochEv, symObjAddr: 0x12F8, symBinAddr: 0x100001A90, symSize: 0x18 }
  - { offset: 0xEAB1, size: 0x8, addend: 0x0, symName: __ZNSt6chronomiINS_3_V212system_clockENS_8durationIxSt5ratioILl1ELl1000000000EEEES6_EENSt11common_typeIJT0_T1_EE4typeERKNS_10time_pointIT_S8_EERKNSC_ISD_S9_EE, symObjAddr: 0x12BC, symBinAddr: 0x100001A54, symSize: 0x3C }
  - { offset: 0xEB07, size: 0x8, addend: 0x0, symName: __ZN4MCTS13backpropagateEPNS_4NodeEi, symObjAddr: 0x1248, symBinAddr: 0x1000019E0, symSize: 0x74 }
  - { offset: 0xEB52, size: 0x8, addend: 0x0, symName: __ZN4MCTS8simulateEPA13_ii, symObjAddr: 0xF80, symBinAddr: 0x100001718, symSize: 0x2C8 }
  - { offset: 0xEC9F, size: 0x8, addend: 0x0, symName: __ZN4MCTS6expandEPNS_4NodeE, symObjAddr: 0xDA0, symBinAddr: 0x100001538, symSize: 0x1E0 }
  - { offset: 0xED05, size: 0x8, addend: 0x0, symName: __ZN4MCTS6selectEPNS_4NodeE, symObjAddr: 0xBE8, symBinAddr: 0x100001380, symSize: 0x1B8 }
  - { offset: 0xEE9A, size: 0x8, addend: 0x0, symName: __ZN4MCTS13getCandidatesEPA13_ii, symObjAddr: 0x7CC, symBinAddr: 0x100000F64, symSize: 0x41C }
  - { offset: 0xF09A, size: 0x8, addend: 0x0, symName: __ZN4MCTS10deleteTreeEPNS_4NodeE, symObjAddr: 0x6F8, symBinAddr: 0x100000E90, symSize: 0xD4 }
  - { offset: 0xF1DB, size: 0x8, addend: 0x0, symName: __ZN4MCTS4NodeD1Ev, symObjAddr: 0x6C8, symBinAddr: 0x100000E60, symSize: 0x30 }
  - { offset: 0xF297, size: 0x8, addend: 0x0, symName: __ZN4MCTS4NodeC1EPS0_i, symObjAddr: 0x640, symBinAddr: 0x100000DD8, symSize: 0x88 }
  - { offset: 0xF2E9, size: 0x8, addend: 0x0, symName: __ZNSt6vectorIPN4MCTS4NodeESaIS2_EEC1Ev, symObjAddr: 0x620, symBinAddr: 0x100000DB8, symSize: 0x20 }
  - { offset: 0xF329, size: 0x8, addend: 0x0, symName: __ZNSt12_Vector_baseIPN4MCTS4NodeESaIS2_EEC2Ev, symObjAddr: 0x600, symBinAddr: 0x100000D98, symSize: 0x20 }
  - { offset: 0xF36C, size: 0x8, addend: 0x0, symName: __ZNSt12_Vector_baseIPN4MCTS4NodeESaIS2_EE12_Vector_implD1Ev, symObjAddr: 0x5D4, symBinAddr: 0x100000D6C, symSize: 0x2C }
  - { offset: 0xF3BC, size: 0x8, addend: 0x0, symName: __Z18is_opponent_threatii, symObjAddr: 0x4D8, symBinAddr: 0x100000C70, symSize: 0xFC }
  - { offset: 0xF484, size: 0x8, addend: 0x0, symName: __Z13evaluate_moveii, symObjAddr: 0x39C, symBinAddr: 0x100000B34, symSize: 0x13C }
  - { offset: 0xF54C, size: 0x8, addend: 0x0, symName: __Z19generate_candidatesv, symObjAddr: 0x12C, symBinAddr: 0x1000008C4, symSize: 0x270 }
  - { offset: 0xF6B1, size: 0x8, addend: 0x0, symName: __ZNSt6vectorI4MoveSaIS0_EEC1Ev, symObjAddr: 0x10C, symBinAddr: 0x1000008A4, symSize: 0x20 }
  - { offset: 0xF6F1, size: 0x8, addend: 0x0, symName: __ZNSt12_Vector_baseI4MoveSaIS0_EEC2Ev, symObjAddr: 0xEC, symBinAddr: 0x100000884, symSize: 0x20 }
  - { offset: 0xF734, size: 0x8, addend: 0x0, symName: __ZNSt12_Vector_baseI4MoveSaIS0_EE12_Vector_implD1Ev, symObjAddr: 0xC0, symBinAddr: 0x100000858, symSize: 0x2C }
  - { offset: 0xF784, size: 0x8, addend: 0x0, symName: __Z8in_boardii, symObjAddr: 0x70, symBinAddr: 0x100000808, symSize: 0x50 }
  - { offset: 0xF7C1, size: 0x8, addend: 0x0, symName: __ZNKSt6chrono8durationIxSt5ratioILl1ELl1000000000EEE5countEv, symObjAddr: 0x58, symBinAddr: 0x1000007F0, symSize: 0x18 }
  - { offset: 0xF81C, size: 0x8, addend: 0x0, symName: __ZNSt6chrono8durationIxSt5ratioILl1ELl1000000000EEEC1IxvEERKT_, symObjAddr: 0x30, symBinAddr: 0x1000007C8, symSize: 0x28 }
  - { offset: 0xF857, size: 0x8, addend: 0x0, symName: __ZdlPvS_, symObjAddr: 0x18, symBinAddr: 0x1000007B0, symSize: 0x18 }
  - { offset: 0xF88D, size: 0x8, addend: 0x0, symName: __ZnwmPv, symObjAddr: 0x0, symBinAddr: 0x100000798, symSize: 0x18 }
...
